                              1 ;--------------------------------------------------------
                              2 ; File Created by SDCC : FreeWare ANSI-C Compiler
                              3 ; Version 2.3.1 Sun Feb 26 14:07:10 2017
                              4 
                              5 ;--------------------------------------------------------
                              6 	.module lcc60000
                              7 	
                              8 ;--------------------------------------------------------
                              9 ; Public variables in this module
                             10 ;--------------------------------------------------------
                             11 	.globl _main
                             12 	.globl _initialize
                             13 	.globl _game_loop
                             14 	.globl _init_bg
                             15 	.globl _init_foods
                             16 	.globl _init_food
                             17 	.globl _set_food_type
                             18 	.globl _set_up_food_sprite
                             19 	.globl _init_player
                             20 	.globl _draw_foods
                             21 	.globl _draw_player
                             22 	.globl _player_idle_anim
                             23 	.globl _player_jump_and_gravity
                             24 	.globl _food_logic
                             25 	.globl _food_collision
                             26 	.globl _bounce_food
                             27 	.globl _read_controls
                             28 	.globl _foods
                             29 	.globl _player_idle_anim_frames
                             30 	.globl _player_jump_frames
                             31 	.globl _player_dir
                             32 	.globl _player_y_draw_offset
                             33 	.globl _player_y
                             34 	.globl _player_x
                             35 	.globl _PAL_BG_FIRE
                             36 	.globl _PAL_BG_POT_DARK_3
                             37 	.globl _PAL_BG_POT_DARK_2
                             38 	.globl _PAL_BG_POT_DARK
                             39 	.globl _PAL_BG_POT
                             40 	.globl _PAL_BG_SPOTS
                             41 	.globl _PAL_FOOD_0
                             42 	.globl _PAL_FOOD_TOUCH
                             43 	.globl _PAL_PLAYER
                             44 	.globl _MAP_PAL_BG_1
                             45 	.globl _MAP_BG_1
                             46 	.globl _TILE_FIRE
                             47 	.globl _TILE_POT_RIGHT_WALL
                             48 	.globl _TILE_POT_LEFT_WALL
                             49 	.globl _TILE_POT_RIGHT_CORNER
                             50 	.globl _TILE_POT_LEFT_CORNER
                             51 	.globl _TILE_POT_FLOOR
                             52 	.globl _TILE_SPOTS
                             53 	.globl _TILE_BLANK_LIGHT
                             54 	.globl _TILE_BLANK_EMPTY
                             55 	.globl _SPR_DAT_FOOD_1_1_1
                             56 	.globl _SPR_DAT_FOOD_0_1_1
                             57 	.globl _SPR_DAT_FOOD_1_0_1
                             58 	.globl _SPR_DAT_FOOD_0_0_1
                             59 	.globl _SPR_DAT_FOOD_1_1_0
                             60 	.globl _SPR_DAT_FOOD_0_1_0
                             61 	.globl _SPR_DAT_FOOD_1_0_0
                             62 	.globl _SPR_DAT_FOOD_0_0_0
                             63 	.globl _SPR_DAT_PLAYER_1_2_MID
                             64 	.globl _SPR_DAT_PLAYER_0_2_MID
                             65 	.globl _SPR_DAT_PLAYER_1_1_MID
                             66 	.globl _SPR_DAT_PLAYER_0_1_MID
                             67 	.globl _SPR_DAT_PLAYER_1_0_MID
                             68 	.globl _SPR_DAT_PLAYER_0_0_MID
                             69 ;--------------------------------------------------------
                             70 ; special function registers
                             71 ;--------------------------------------------------------
                             72 ;--------------------------------------------------------
                             73 ; special function bits 
                             74 ;--------------------------------------------------------
                             75 ;--------------------------------------------------------
                             76 ; internal ram data
                             77 ;--------------------------------------------------------
                             78 	.area _DATA
   0000                      79 _player_x::
   0000                      80 	.ds 1
   0001                      81 _player_y::
   0001                      82 	.ds 1
   0002                      83 _player_y_draw_offset::
   0002                      84 	.ds 1
   0003                      85 _player_dir::
   0003                      86 	.ds 1
   0004                      87 _player_jump_frames::
   0004                      88 	.ds 1
   0005                      89 _player_idle_anim_frames::
   0005                      90 	.ds 2
   0007                      91 _foods::
   0007                      92 	.ds 88
                             93 ;--------------------------------------------------------
                             94 ; overlayable items in internal ram 
                             95 ;--------------------------------------------------------
                             96 	.area _OVERLAY
                             97 ;--------------------------------------------------------
                             98 ; indirectly addressable internal ram data
                             99 ;--------------------------------------------------------
                            100 	.area _ISEG
                            101 ;--------------------------------------------------------
                            102 ; bit data
                            103 ;--------------------------------------------------------
                            104 	.area _BSEG
                            105 ;--------------------------------------------------------
                            106 ; external ram data
                            107 ;--------------------------------------------------------
                            108 	.area _XSEG
                            109 ;--------------------------------------------------------
                            110 ; global & static initialisations
                            111 ;--------------------------------------------------------
                            112 	.area _GSINIT
                            113 	.area _GSFINAL
                            114 	.area _GSINIT
                            115 ;--------------------------------------------------------
                            116 ; Home
                            117 ;--------------------------------------------------------
                            118 	.area _HOME
                            119 	.area _CODE
                            120 ;--------------------------------------------------------
                            121 ; code
                            122 ;--------------------------------------------------------
                            123 	.area _CODE
                            124 ;	src/food_spirit.c 31
                            125 ;	genLabel
                            126 ;	genFunction
                            127 ;	---------------------------------
                            128 ; Function read_controls
                            129 ; ---------------------------------
   0000                     130 ___read_controls_start:
   0000                     131 _read_controls:
                            132 	
                            133 ;	src/food_spirit.c 32
                            134 ;	genCall
                            135 ; _saveRegsForCall: sendSetSize: 0 deInUse: 0 bcInUse: 0 deSending: 0
   0000 CD 00 00            136 	call	_joypad
   0003 4B                  137 	ld	c,e
                            138 ;	genAssign
                            139 ;	(registers are the same)
                            140 ;	src/food_spirit.c 34
                            141 ;	genAnd
   0004 79                  142 	ld	a,c
   0005 E6 10               143 	and	a,#0x10
   0007 20 03               144 	jr	nz,00123$
   0009 C3 24 00            145 	jp	00104$
   000C                     146 00123$:
                            147 ;	src/food_spirit.c 35
                            148 ;	genCall
                            149 ; _saveRegsForCall: sendSetSize: 0 deInUse: 0 bcInUse: 1 deSending: 0
   000C C5                  150 	push	bc
   000D CD 00 00            151 	call	_init_rand
   0010 E1                  152 	pop	hl
   0011 4D                  153 	ld	c,l
                            154 ;	src/food_spirit.c 37
                            155 ;	genCmpEq
                            156 ;	AOP_HL for _player_jump_frames
                            157 ; genCmpEq: left 1, right 1, result 0
   0012 21 04 00            158 	ld	hl,#_player_jump_frames
   0015 7E                  159 	ld	a,(hl)
   0016 B7                  160 	or	a,a
   0017 C2 24 00            161 	jp	nz,00104$
   001A 18 03               162 	jr	00125$
   001C                     163 00124$:
   001C C3 24 00            164 	jp	00104$
   001F                     165 00125$:
                            166 ;	src/food_spirit.c 38
                            167 ;	genAssign
                            168 ;	AOP_HL for _player_jump_frames
   001F 21 04 00            169 	ld	hl,#_player_jump_frames
   0022 36 14               170 	ld	(hl),#0x14
                            171 ;	genLabel
   0024                     172 00104$:
                            173 ;	src/food_spirit.c 42
                            174 ;	genAnd
   0024 79                  175 	ld	a,c
   0025 E6 01               176 	and	a,#0x01
   0027 20 03               177 	jr	nz,00126$
   0029 C3 45 00            178 	jp	00113$
   002C                     179 00126$:
                            180 ;	src/food_spirit.c 43
                            181 ;	genCall
                            182 ; _saveRegsForCall: sendSetSize: 0 deInUse: 0 bcInUse: 1 deSending: 0
   002C C5                  183 	push	bc
   002D CD 00 00            184 	call	_init_rand
   0030 E1                  185 	pop	hl
   0031 4D                  186 	ld	c,l
                            187 ;	src/food_spirit.c 45
                            188 ;	genCmpLt
                            189 ;	AOP_HL for _player_x
   0032 21 00 00            190 	ld	hl,#_player_x
   0035 7E                  191 	ld	a,(hl)
   0036 FE 8C               192 	cp	#0x8C
   0038 D2 3D 00            193 	jp	nc,00106$
                            194 ;	src/food_spirit.c 46
                            195 ;	genPlus
                            196 ;	AOP_HL for _player_x
                            197 ;	genPlusIncr
   003B 34                  198 	inc	(hl)
   003C 34                  199 	inc	(hl)
                            200 ;	genLabel
   003D                     201 00106$:
                            202 ;	src/food_spirit.c 48
                            203 ;	genAssign
                            204 ;	AOP_HL for _player_dir
   003D 21 03 00            205 	ld	hl,#_player_dir
   0040 36 02               206 	ld	(hl),#0x02
                            207 ;	genGoto
   0042 C3 68 00            208 	jp	00115$
                            209 ;	genLabel
   0045                     210 00113$:
                            211 ;	src/food_spirit.c 49
                            212 ;	genAnd
   0045 79                  213 	ld	a,c
   0046 E6 02               214 	and	a,#0x02
   0048 20 03               215 	jr	nz,00127$
   004A C3 63 00            216 	jp	00110$
   004D                     217 00127$:
                            218 ;	src/food_spirit.c 50
                            219 ;	genCall
                            220 ; _saveRegsForCall: sendSetSize: 0 deInUse: 0 bcInUse: 0 deSending: 0
   004D CD 00 00            221 	call	_init_rand
                            222 ;	src/food_spirit.c 52
                            223 ;	genCmpGt
                            224 ;	AOP_HL for _player_x
   0050 3E 14               225 	ld	a,#0x14
   0052 21 00 00            226 	ld	hl,#_player_x
   0055 96                  227 	sub	a,(hl)
   0056 D2 5B 00            228 	jp	nc,00108$
                            229 ;	src/food_spirit.c 53
                            230 ;	genMinus
                            231 ;	AOP_HL for _player_x
   0059 35                  232 	dec	(hl)
   005A 35                  233 	dec	(hl)
                            234 ;	genLabel
   005B                     235 00108$:
                            236 ;	src/food_spirit.c 55
                            237 ;	genAssign
                            238 ;	AOP_HL for _player_dir
   005B 21 03 00            239 	ld	hl,#_player_dir
   005E 36 01               240 	ld	(hl),#0x01
                            241 ;	genGoto
   0060 C3 68 00            242 	jp	00115$
                            243 ;	genLabel
   0063                     244 00110$:
                            245 ;	src/food_spirit.c 57
                            246 ;	genAssign
                            247 ;	AOP_HL for _player_dir
   0063 21 03 00            248 	ld	hl,#_player_dir
   0066 36 00               249 	ld	(hl),#0x00
                            250 ;	genLabel
   0068                     251 00115$:
                            252 ;	genEndFunction
                            253 	
   0068 C9                  254 	ret
   0069                     255 ___read_controls_end:
   0069                     256 _SPR_DAT_PLAYER_0_0_MID:
   0069 0E                  257 	.db #0x0E
   006A 0E                  258 	.db #0x0E
   006B 13                  259 	.db #0x13
   006C 1D                  260 	.db #0x1D
   006D 0F                  261 	.db #0x0F
   006E 08                  262 	.db #0x08
   006F 0F                  263 	.db #0x0F
   0070 0A                  264 	.db #0x0A
   0071 0F                  265 	.db #0x0F
   0072 0A                  266 	.db #0x0A
   0073 0F                  267 	.db #0x0F
   0074 08                  268 	.db #0x08
   0075 07                  269 	.db #0x07
   0076 04                  270 	.db #0x04
   0077 0F                  271 	.db #0x0F
   0078 0C                  272 	.db #0x0C
   0079                     273 _SPR_DAT_PLAYER_1_0_MID:
   0079 00                  274 	.db #0x00
   007A 00                  275 	.db #0x00
   007B C0                  276 	.db #0xC0
   007C C0                  277 	.db #0xC0
   007D E0                  278 	.db #0xE0
   007E 20                  279 	.db #0x20
   007F F0                  280 	.db #0xF0
   0080 50                  281 	.db #0x50
   0081 F0                  282 	.db #0xF0
   0082 50                  283 	.db #0x50
   0083 F0                  284 	.db #0xF0
   0084 10                  285 	.db #0x10
   0085 E0                  286 	.db #0xE0
   0086 20                  287 	.db #0x20
   0087 B0                  288 	.db #0xB0
   0088 70                  289 	.db #0x70
   0089                     290 _SPR_DAT_PLAYER_0_1_MID:
   0089 37                  291 	.db #0x37
   008A 38                  292 	.db #0x38
   008B 5F                  293 	.db #0x5F
   008C 60                  294 	.db #0x60
   008D FF                  295 	.db #0xFF
   008E 80                  296 	.db #0x80
   008F EA                  297 	.db #0xEA
   0090 9D                  298 	.db #0x9D
   0091 B5                  299 	.db #0xB5
   0092 F6                  300 	.db #0xF6
   0093 C5                  301 	.db #0xC5
   0094 C6                  302 	.db #0xC6
   0095 42                  303 	.db #0x42
   0096 43                  304 	.db #0x43
   0097 05                  305 	.db #0x05
   0098 06                  306 	.db #0x06
   0099                     307 _SPR_DAT_PLAYER_1_1_MID:
   0099 EC                  308 	.db #0xEC
   009A 1C                  309 	.db #0x1C
   009B FA                  310 	.db #0xFA
   009C 06                  311 	.db #0x06
   009D 7F                  312 	.db #0x7F
   009E 81                  313 	.db #0x81
   009F DB                  314 	.db #0xDB
   00A0 3D                  315 	.db #0x3D
   00A1 E5                  316 	.db #0xE5
   00A2 27                  317 	.db #0x27
   00A3 53                  318 	.db #0x53
   00A4 B3                  319 	.db #0xB3
   00A5 D2                  320 	.db #0xD2
   00A6 32                  321 	.db #0x32
   00A7 E0                  322 	.db #0xE0
   00A8 20                  323 	.db #0x20
   00A9                     324 _SPR_DAT_PLAYER_0_2_MID:
   00A9 07                  325 	.db #0x07
   00AA 04                  326 	.db #0x04
   00AB 07                  327 	.db #0x07
   00AC 04                  328 	.db #0x04
   00AD 0A                  329 	.db #0x0A
   00AE 0D                  330 	.db #0x0D
   00AF 05                  331 	.db #0x05
   00B0 06                  332 	.db #0x06
   00B1 03                  333 	.db #0x03
   00B2 02                  334 	.db #0x02
   00B3 01                  335 	.db #0x01
   00B4 01                  336 	.db #0x01
   00B5 02                  337 	.db #0x02
   00B6 03                  338 	.db #0x03
   00B7 01                  339 	.db #0x01
   00B8 01                  340 	.db #0x01
   00B9                     341 _SPR_DAT_PLAYER_1_2_MID:
   00B9 A0                  342 	.db #0xA0
   00BA 60                  343 	.db #0x60
   00BB 40                  344 	.db #0x40
   00BC C0                  345 	.db #0xC0
   00BD 80                  346 	.db #0x80
   00BE 80                  347 	.db #0x80
   00BF 40                  348 	.db #0x40
   00C0 C0                  349 	.db #0xC0
   00C1 A0                  350 	.db #0xA0
   00C2 60                  351 	.db #0x60
   00C3 40                  352 	.db #0x40
   00C4 C0                  353 	.db #0xC0
   00C5 80                  354 	.db #0x80
   00C6 80                  355 	.db #0x80
   00C7 00                  356 	.db #0x00
   00C8 00                  357 	.db #0x00
   00C9                     358 _SPR_DAT_FOOD_0_0_0:
   00C9 10                  359 	.db #0x10
   00CA 10                  360 	.db #0x10
   00CB 38                  361 	.db #0x38
   00CC 28                  362 	.db #0x28
   00CD 78                  363 	.db #0x78
   00CE 68                  364 	.db #0x68
   00CF FC                  365 	.db #0xFC
   00D0 84                  366 	.db #0x84
   00D1 7E                  367 	.db #0x7E
   00D2 62                  368 	.db #0x62
   00D3 1F                  369 	.db #0x1F
   00D4 11                  370 	.db #0x11
   00D5 0E                  371 	.db #0x0E
   00D6 09                  372 	.db #0x09
   00D7 07                  373 	.db #0x07
   00D8 04                  374 	.db #0x04
   00D9                     375 _SPR_DAT_FOOD_1_0_0:
   00D9 00                  376 	.db #0x00
   00DA 00                  377 	.db #0x00
   00DB 00                  378 	.db #0x00
   00DC 00                  379 	.db #0x00
   00DD 00                  380 	.db #0x00
   00DE 00                  381 	.db #0x00
   00DF 00                  382 	.db #0x00
   00E0 00                  383 	.db #0x00
   00E1 00                  384 	.db #0x00
   00E2 00                  385 	.db #0x00
   00E3 E0                  386 	.db #0xE0
   00E4 E0                  387 	.db #0xE0
   00E5 18                  388 	.db #0x18
   00E6 F8                  389 	.db #0xF8
   00E7 04                  390 	.db #0x04
   00E8 FC                  391 	.db #0xFC
   00E9                     392 _SPR_DAT_FOOD_0_1_0:
   00E9 04                  393 	.db #0x04
   00EA 07                  394 	.db #0x07
   00EB 04                  395 	.db #0x04
   00EC 07                  396 	.db #0x07
   00ED 04                  397 	.db #0x04
   00EE 07                  398 	.db #0x07
   00EF 02                  399 	.db #0x02
   00F0 03                  400 	.db #0x03
   00F1 02                  401 	.db #0x02
   00F2 03                  402 	.db #0x03
   00F3 01                  403 	.db #0x01
   00F4 01                  404 	.db #0x01
   00F5 00                  405 	.db #0x00
   00F6 00                  406 	.db #0x00
   00F7 00                  407 	.db #0x00
   00F8 00                  408 	.db #0x00
   00F9                     409 _SPR_DAT_FOOD_1_1_0:
   00F9 02                  410 	.db #0x02
   00FA FE                  411 	.db #0xFE
   00FB 02                  412 	.db #0x02
   00FC FE                  413 	.db #0xFE
   00FD 01                  414 	.db #0x01
   00FE FF                  415 	.db #0xFF
   00FF 01                  416 	.db #0x01
   0100 FF                  417 	.db #0xFF
   0101 01                  418 	.db #0x01
   0102 FF                  419 	.db #0xFF
   0103 01                  420 	.db #0x01
   0104 FF                  421 	.db #0xFF
   0105 C2                  422 	.db #0xC2
   0106 FE                  423 	.db #0xFE
   0107 3C                  424 	.db #0x3C
   0108 3C                  425 	.db #0x3C
   0109                     426 _SPR_DAT_FOOD_0_0_1:
   0109 0E                  427 	.db #0x0E
   010A 0E                  428 	.db #0x0E
   010B 13                  429 	.db #0x13
   010C 1D                  430 	.db #0x1D
   010D 0F                  431 	.db #0x0F
   010E 08                  432 	.db #0x08
   010F 0F                  433 	.db #0x0F
   0110 0A                  434 	.db #0x0A
   0111 0F                  435 	.db #0x0F
   0112 0A                  436 	.db #0x0A
   0113 0F                  437 	.db #0x0F
   0114 08                  438 	.db #0x08
   0115 07                  439 	.db #0x07
   0116 04                  440 	.db #0x04
   0117 0F                  441 	.db #0x0F
   0118 0C                  442 	.db #0x0C
   0119                     443 _SPR_DAT_FOOD_1_0_1:
   0119 0E                  444 	.db #0x0E
   011A 0E                  445 	.db #0x0E
   011B 13                  446 	.db #0x13
   011C 1D                  447 	.db #0x1D
   011D 0F                  448 	.db #0x0F
   011E 08                  449 	.db #0x08
   011F 0F                  450 	.db #0x0F
   0120 0A                  451 	.db #0x0A
   0121 0F                  452 	.db #0x0F
   0122 0A                  453 	.db #0x0A
   0123 0F                  454 	.db #0x0F
   0124 08                  455 	.db #0x08
   0125 07                  456 	.db #0x07
   0126 04                  457 	.db #0x04
   0127 0F                  458 	.db #0x0F
   0128 0C                  459 	.db #0x0C
   0129                     460 _SPR_DAT_FOOD_0_1_1:
   0129 0E                  461 	.db #0x0E
   012A 0E                  462 	.db #0x0E
   012B 13                  463 	.db #0x13
   012C 1D                  464 	.db #0x1D
   012D 0F                  465 	.db #0x0F
   012E 08                  466 	.db #0x08
   012F 0F                  467 	.db #0x0F
   0130 0A                  468 	.db #0x0A
   0131 0F                  469 	.db #0x0F
   0132 0A                  470 	.db #0x0A
   0133 0F                  471 	.db #0x0F
   0134 08                  472 	.db #0x08
   0135 07                  473 	.db #0x07
   0136 04                  474 	.db #0x04
   0137 0F                  475 	.db #0x0F
   0138 0C                  476 	.db #0x0C
   0139                     477 _SPR_DAT_FOOD_1_1_1:
   0139 0E                  478 	.db #0x0E
   013A 0E                  479 	.db #0x0E
   013B 13                  480 	.db #0x13
   013C 1D                  481 	.db #0x1D
   013D 0F                  482 	.db #0x0F
   013E 08                  483 	.db #0x08
   013F 0F                  484 	.db #0x0F
   0140 0A                  485 	.db #0x0A
   0141 0F                  486 	.db #0x0F
   0142 0A                  487 	.db #0x0A
   0143 0F                  488 	.db #0x0F
   0144 08                  489 	.db #0x08
   0145 07                  490 	.db #0x07
   0146 04                  491 	.db #0x04
   0147 0F                  492 	.db #0x0F
   0148 0C                  493 	.db #0x0C
   0149                     494 _TILE_BLANK_EMPTY:
   0149 00                  495 	.db #0x00
   014A 00                  496 	.db #0x00
   014B 00                  497 	.db #0x00
   014C 00                  498 	.db #0x00
   014D 00                  499 	.db #0x00
   014E 00                  500 	.db #0x00
   014F 00                  501 	.db #0x00
   0150 00                  502 	.db #0x00
   0151 00                  503 	.db #0x00
   0152 00                  504 	.db #0x00
   0153 00                  505 	.db #0x00
   0154 00                  506 	.db #0x00
   0155 00                  507 	.db #0x00
   0156 00                  508 	.db #0x00
   0157 00                  509 	.db #0x00
   0158 00                  510 	.db #0x00
   0159                     511 _TILE_BLANK_LIGHT:
   0159 FF                  512 	.db #0xFF
   015A 00                  513 	.db #0x00
   015B FF                  514 	.db #0xFF
   015C 00                  515 	.db #0x00
   015D FF                  516 	.db #0xFF
   015E 00                  517 	.db #0x00
   015F FF                  518 	.db #0xFF
   0160 00                  519 	.db #0x00
   0161 FF                  520 	.db #0xFF
   0162 00                  521 	.db #0x00
   0163 FF                  522 	.db #0xFF
   0164 00                  523 	.db #0x00
   0165 FF                  524 	.db #0xFF
   0166 00                  525 	.db #0x00
   0167 FF                  526 	.db #0xFF
   0168 00                  527 	.db #0x00
   0169                     528 _TILE_SPOTS:
   0169 42                  529 	.db #0x42
   016A 00                  530 	.db #0x00
   016B 81                  531 	.db #0x81
   016C 00                  532 	.db #0x00
   016D 18                  533 	.db #0x18
   016E 00                  534 	.db #0x00
   016F 24                  535 	.db #0x24
   0170 00                  536 	.db #0x00
   0171 24                  537 	.db #0x24
   0172 00                  538 	.db #0x00
   0173 18                  539 	.db #0x18
   0174 00                  540 	.db #0x00
   0175 81                  541 	.db #0x81
   0176 00                  542 	.db #0x00
   0177 42                  543 	.db #0x42
   0178 00                  544 	.db #0x00
   0179                     545 _TILE_POT_FLOOR:
   0179 FF                  546 	.db #0xFF
   017A 00                  547 	.db #0x00
   017B FF                  548 	.db #0xFF
   017C 00                  549 	.db #0x00
   017D FF                  550 	.db #0xFF
   017E 00                  551 	.db #0x00
   017F FF                  552 	.db #0xFF
   0180 FF                  553 	.db #0xFF
   0181 FF                  554 	.db #0xFF
   0182 FF                  555 	.db #0xFF
   0183 FF                  556 	.db #0xFF
   0184 FF                  557 	.db #0xFF
   0185 00                  558 	.db #0x00
   0186 FF                  559 	.db #0xFF
   0187 00                  560 	.db #0x00
   0188 00                  561 	.db #0x00
   0189                     562 _TILE_POT_LEFT_CORNER:
   0189 FF                  563 	.db #0xFF
   018A F0                  564 	.db #0xF0
   018B FF                  565 	.db #0xFF
   018C F0                  566 	.db #0xF0
   018D FF                  567 	.db #0xFF
   018E F8                  568 	.db #0xF8
   018F FF                  569 	.db #0xFF
   0190 FF                  570 	.db #0xFF
   0191 7F                  571 	.db #0x7F
   0192 7F                  572 	.db #0x7F
   0193 3F                  573 	.db #0x3F
   0194 3F                  574 	.db #0x3F
   0195 10                  575 	.db #0x10
   0196 1F                  576 	.db #0x1F
   0197 00                  577 	.db #0x00
   0198 00                  578 	.db #0x00
   0199                     579 _TILE_POT_RIGHT_CORNER:
   0199 FF                  580 	.db #0xFF
   019A 0F                  581 	.db #0x0F
   019B FF                  582 	.db #0xFF
   019C 0F                  583 	.db #0x0F
   019D FF                  584 	.db #0xFF
   019E 1F                  585 	.db #0x1F
   019F FF                  586 	.db #0xFF
   01A0 FF                  587 	.db #0xFF
   01A1 FE                  588 	.db #0xFE
   01A2 FE                  589 	.db #0xFE
   01A3 FC                  590 	.db #0xFC
   01A4 FC                  591 	.db #0xFC
   01A5 08                  592 	.db #0x08
   01A6 F8                  593 	.db #0xF8
   01A7 00                  594 	.db #0x00
   01A8 00                  595 	.db #0x00
   01A9                     596 _TILE_POT_LEFT_WALL:
   01A9 FF                  597 	.db #0xFF
   01AA F0                  598 	.db #0xF0
   01AB FF                  599 	.db #0xFF
   01AC F0                  600 	.db #0xF0
   01AD FF                  601 	.db #0xFF
   01AE F0                  602 	.db #0xF0
   01AF FF                  603 	.db #0xFF
   01B0 F0                  604 	.db #0xF0
   01B1 FF                  605 	.db #0xFF
   01B2 F0                  606 	.db #0xF0
   01B3 FF                  607 	.db #0xFF
   01B4 F0                  608 	.db #0xF0
   01B5 FF                  609 	.db #0xFF
   01B6 F0                  610 	.db #0xF0
   01B7 FF                  611 	.db #0xFF
   01B8 F0                  612 	.db #0xF0
   01B9                     613 _TILE_POT_RIGHT_WALL:
   01B9 FF                  614 	.db #0xFF
   01BA 0F                  615 	.db #0x0F
   01BB FF                  616 	.db #0xFF
   01BC 0F                  617 	.db #0x0F
   01BD FF                  618 	.db #0xFF
   01BE 0F                  619 	.db #0x0F
   01BF FF                  620 	.db #0xFF
   01C0 0F                  621 	.db #0x0F
   01C1 FF                  622 	.db #0xFF
   01C2 0F                  623 	.db #0x0F
   01C3 FF                  624 	.db #0xFF
   01C4 0F                  625 	.db #0x0F
   01C5 FF                  626 	.db #0xFF
   01C6 0F                  627 	.db #0x0F
   01C7 FF                  628 	.db #0xFF
   01C8 0F                  629 	.db #0x0F
   01C9                     630 _TILE_FIRE:
   01C9 10                  631 	.db #0x10
   01CA 10                  632 	.db #0x10
   01CB 30                  633 	.db #0x30
   01CC 30                  634 	.db #0x30
   01CD 28                  635 	.db #0x28
   01CE 38                  636 	.db #0x38
   01CF 24                  637 	.db #0x24
   01D0 3C                  638 	.db #0x3C
   01D1 54                  639 	.db #0x54
   01D2 6C                  640 	.db #0x6C
   01D3 5A                  641 	.db #0x5A
   01D4 66                  642 	.db #0x66
   01D5 6E                  643 	.db #0x6E
   01D6 52                  644 	.db #0x52
   01D7 34                  645 	.db #0x34
   01D8 2C                  646 	.db #0x2C
   01D9                     647 _MAP_BG_1:
   01D9 01                  648 	.db #0x01
   01DA 01                  649 	.db #0x01
   01DB 01                  650 	.db #0x01
   01DC 01                  651 	.db #0x01
   01DD 01                  652 	.db #0x01
   01DE 01                  653 	.db #0x01
   01DF 01                  654 	.db #0x01
   01E0 01                  655 	.db #0x01
   01E1 01                  656 	.db #0x01
   01E2 01                  657 	.db #0x01
   01E3 01                  658 	.db #0x01
   01E4 01                  659 	.db #0x01
   01E5 01                  660 	.db #0x01
   01E6 01                  661 	.db #0x01
   01E7 01                  662 	.db #0x01
   01E8 01                  663 	.db #0x01
   01E9 01                  664 	.db #0x01
   01EA 01                  665 	.db #0x01
   01EB 01                  666 	.db #0x01
   01EC 01                  667 	.db #0x01
   01ED 01                  668 	.db #0x01
   01EE 01                  669 	.db #0x01
   01EF 01                  670 	.db #0x01
   01F0 01                  671 	.db #0x01
   01F1 01                  672 	.db #0x01
   01F2 01                  673 	.db #0x01
   01F3 01                  674 	.db #0x01
   01F4 01                  675 	.db #0x01
   01F5 01                  676 	.db #0x01
   01F6 01                  677 	.db #0x01
   01F7 01                  678 	.db #0x01
   01F8 01                  679 	.db #0x01
   01F9 01                  680 	.db #0x01
   01FA 01                  681 	.db #0x01
   01FB 01                  682 	.db #0x01
   01FC 01                  683 	.db #0x01
   01FD 01                  684 	.db #0x01
   01FE 01                  685 	.db #0x01
   01FF 01                  686 	.db #0x01
   0200 01                  687 	.db #0x01
   0201 01                  688 	.db #0x01
   0202 05                  689 	.db #0x05
   0203 08                  690 	.db #0x08
   0204 08                  691 	.db #0x08
   0205 08                  692 	.db #0x08
   0206 08                  693 	.db #0x08
   0207 08                  694 	.db #0x08
   0208 08                  695 	.db #0x08
   0209 08                  696 	.db #0x08
   020A 08                  697 	.db #0x08
   020B 08                  698 	.db #0x08
   020C 08                  699 	.db #0x08
   020D 08                  700 	.db #0x08
   020E 08                  701 	.db #0x08
   020F 08                  702 	.db #0x08
   0210 08                  703 	.db #0x08
   0211 08                  704 	.db #0x08
   0212 08                  705 	.db #0x08
   0213 06                  706 	.db #0x06
   0214 01                  707 	.db #0x01
   0215 01                  708 	.db #0x01
   0216 05                  709 	.db #0x05
   0217 08                  710 	.db #0x08
   0218 08                  711 	.db #0x08
   0219 08                  712 	.db #0x08
   021A 08                  713 	.db #0x08
   021B 08                  714 	.db #0x08
   021C 08                  715 	.db #0x08
   021D 08                  716 	.db #0x08
   021E 08                  717 	.db #0x08
   021F 08                  718 	.db #0x08
   0220 08                  719 	.db #0x08
   0221 08                  720 	.db #0x08
   0222 08                  721 	.db #0x08
   0223 08                  722 	.db #0x08
   0224 08                  723 	.db #0x08
   0225 08                  724 	.db #0x08
   0226 08                  725 	.db #0x08
   0227 06                  726 	.db #0x06
   0228 01                  727 	.db #0x01
   0229 01                  728 	.db #0x01
   022A 05                  729 	.db #0x05
   022B 08                  730 	.db #0x08
   022C 08                  731 	.db #0x08
   022D 08                  732 	.db #0x08
   022E 08                  733 	.db #0x08
   022F 08                  734 	.db #0x08
   0230 08                  735 	.db #0x08
   0231 08                  736 	.db #0x08
   0232 08                  737 	.db #0x08
   0233 08                  738 	.db #0x08
   0234 08                  739 	.db #0x08
   0235 08                  740 	.db #0x08
   0236 08                  741 	.db #0x08
   0237 08                  742 	.db #0x08
   0238 08                  743 	.db #0x08
   0239 08                  744 	.db #0x08
   023A 08                  745 	.db #0x08
   023B 06                  746 	.db #0x06
   023C 01                  747 	.db #0x01
   023D 01                  748 	.db #0x01
   023E 05                  749 	.db #0x05
   023F 08                  750 	.db #0x08
   0240 08                  751 	.db #0x08
   0241 08                  752 	.db #0x08
   0242 08                  753 	.db #0x08
   0243 08                  754 	.db #0x08
   0244 08                  755 	.db #0x08
   0245 08                  756 	.db #0x08
   0246 08                  757 	.db #0x08
   0247 08                  758 	.db #0x08
   0248 08                  759 	.db #0x08
   0249 08                  760 	.db #0x08
   024A 08                  761 	.db #0x08
   024B 08                  762 	.db #0x08
   024C 08                  763 	.db #0x08
   024D 08                  764 	.db #0x08
   024E 08                  765 	.db #0x08
   024F 06                  766 	.db #0x06
   0250 01                  767 	.db #0x01
   0251 01                  768 	.db #0x01
   0252 05                  769 	.db #0x05
   0253 08                  770 	.db #0x08
   0254 08                  771 	.db #0x08
   0255 08                  772 	.db #0x08
   0256 08                  773 	.db #0x08
   0257 08                  774 	.db #0x08
   0258 08                  775 	.db #0x08
   0259 08                  776 	.db #0x08
   025A 08                  777 	.db #0x08
   025B 08                  778 	.db #0x08
   025C 08                  779 	.db #0x08
   025D 08                  780 	.db #0x08
   025E 08                  781 	.db #0x08
   025F 08                  782 	.db #0x08
   0260 08                  783 	.db #0x08
   0261 08                  784 	.db #0x08
   0262 08                  785 	.db #0x08
   0263 06                  786 	.db #0x06
   0264 01                  787 	.db #0x01
   0265 01                  788 	.db #0x01
   0266 05                  789 	.db #0x05
   0267 08                  790 	.db #0x08
   0268 08                  791 	.db #0x08
   0269 08                  792 	.db #0x08
   026A 08                  793 	.db #0x08
   026B 08                  794 	.db #0x08
   026C 08                  795 	.db #0x08
   026D 08                  796 	.db #0x08
   026E 08                  797 	.db #0x08
   026F 08                  798 	.db #0x08
   0270 08                  799 	.db #0x08
   0271 08                  800 	.db #0x08
   0272 08                  801 	.db #0x08
   0273 08                  802 	.db #0x08
   0274 08                  803 	.db #0x08
   0275 08                  804 	.db #0x08
   0276 08                  805 	.db #0x08
   0277 06                  806 	.db #0x06
   0278 01                  807 	.db #0x01
   0279 01                  808 	.db #0x01
   027A 05                  809 	.db #0x05
   027B 08                  810 	.db #0x08
   027C 08                  811 	.db #0x08
   027D 08                  812 	.db #0x08
   027E 08                  813 	.db #0x08
   027F 08                  814 	.db #0x08
   0280 08                  815 	.db #0x08
   0281 08                  816 	.db #0x08
   0282 08                  817 	.db #0x08
   0283 08                  818 	.db #0x08
   0284 08                  819 	.db #0x08
   0285 08                  820 	.db #0x08
   0286 08                  821 	.db #0x08
   0287 08                  822 	.db #0x08
   0288 08                  823 	.db #0x08
   0289 08                  824 	.db #0x08
   028A 08                  825 	.db #0x08
   028B 06                  826 	.db #0x06
   028C 01                  827 	.db #0x01
   028D 01                  828 	.db #0x01
   028E 05                  829 	.db #0x05
   028F 08                  830 	.db #0x08
   0290 08                  831 	.db #0x08
   0291 08                  832 	.db #0x08
   0292 08                  833 	.db #0x08
   0293 08                  834 	.db #0x08
   0294 08                  835 	.db #0x08
   0295 08                  836 	.db #0x08
   0296 08                  837 	.db #0x08
   0297 08                  838 	.db #0x08
   0298 08                  839 	.db #0x08
   0299 08                  840 	.db #0x08
   029A 08                  841 	.db #0x08
   029B 08                  842 	.db #0x08
   029C 08                  843 	.db #0x08
   029D 08                  844 	.db #0x08
   029E 08                  845 	.db #0x08
   029F 06                  846 	.db #0x06
   02A0 01                  847 	.db #0x01
   02A1 01                  848 	.db #0x01
   02A2 05                  849 	.db #0x05
   02A3 08                  850 	.db #0x08
   02A4 08                  851 	.db #0x08
   02A5 08                  852 	.db #0x08
   02A6 08                  853 	.db #0x08
   02A7 08                  854 	.db #0x08
   02A8 08                  855 	.db #0x08
   02A9 08                  856 	.db #0x08
   02AA 08                  857 	.db #0x08
   02AB 08                  858 	.db #0x08
   02AC 08                  859 	.db #0x08
   02AD 08                  860 	.db #0x08
   02AE 08                  861 	.db #0x08
   02AF 08                  862 	.db #0x08
   02B0 08                  863 	.db #0x08
   02B1 08                  864 	.db #0x08
   02B2 08                  865 	.db #0x08
   02B3 06                  866 	.db #0x06
   02B4 01                  867 	.db #0x01
   02B5 01                  868 	.db #0x01
   02B6 05                  869 	.db #0x05
   02B7 08                  870 	.db #0x08
   02B8 08                  871 	.db #0x08
   02B9 08                  872 	.db #0x08
   02BA 08                  873 	.db #0x08
   02BB 08                  874 	.db #0x08
   02BC 08                  875 	.db #0x08
   02BD 08                  876 	.db #0x08
   02BE 08                  877 	.db #0x08
   02BF 08                  878 	.db #0x08
   02C0 08                  879 	.db #0x08
   02C1 08                  880 	.db #0x08
   02C2 08                  881 	.db #0x08
   02C3 08                  882 	.db #0x08
   02C4 08                  883 	.db #0x08
   02C5 08                  884 	.db #0x08
   02C6 08                  885 	.db #0x08
   02C7 06                  886 	.db #0x06
   02C8 01                  887 	.db #0x01
   02C9 01                  888 	.db #0x01
   02CA 05                  889 	.db #0x05
   02CB 08                  890 	.db #0x08
   02CC 08                  891 	.db #0x08
   02CD 08                  892 	.db #0x08
   02CE 08                  893 	.db #0x08
   02CF 08                  894 	.db #0x08
   02D0 08                  895 	.db #0x08
   02D1 08                  896 	.db #0x08
   02D2 08                  897 	.db #0x08
   02D3 08                  898 	.db #0x08
   02D4 08                  899 	.db #0x08
   02D5 08                  900 	.db #0x08
   02D6 08                  901 	.db #0x08
   02D7 08                  902 	.db #0x08
   02D8 08                  903 	.db #0x08
   02D9 08                  904 	.db #0x08
   02DA 08                  905 	.db #0x08
   02DB 06                  906 	.db #0x06
   02DC 01                  907 	.db #0x01
   02DD 01                  908 	.db #0x01
   02DE 05                  909 	.db #0x05
   02DF 08                  910 	.db #0x08
   02E0 08                  911 	.db #0x08
   02E1 08                  912 	.db #0x08
   02E2 08                  913 	.db #0x08
   02E3 08                  914 	.db #0x08
   02E4 08                  915 	.db #0x08
   02E5 08                  916 	.db #0x08
   02E6 08                  917 	.db #0x08
   02E7 08                  918 	.db #0x08
   02E8 08                  919 	.db #0x08
   02E9 08                  920 	.db #0x08
   02EA 08                  921 	.db #0x08
   02EB 08                  922 	.db #0x08
   02EC 08                  923 	.db #0x08
   02ED 08                  924 	.db #0x08
   02EE 08                  925 	.db #0x08
   02EF 06                  926 	.db #0x06
   02F0 01                  927 	.db #0x01
   02F1 01                  928 	.db #0x01
   02F2 05                  929 	.db #0x05
   02F3 08                  930 	.db #0x08
   02F4 08                  931 	.db #0x08
   02F5 08                  932 	.db #0x08
   02F6 08                  933 	.db #0x08
   02F7 08                  934 	.db #0x08
   02F8 08                  935 	.db #0x08
   02F9 08                  936 	.db #0x08
   02FA 08                  937 	.db #0x08
   02FB 08                  938 	.db #0x08
   02FC 08                  939 	.db #0x08
   02FD 08                  940 	.db #0x08
   02FE 08                  941 	.db #0x08
   02FF 08                  942 	.db #0x08
   0300 08                  943 	.db #0x08
   0301 08                  944 	.db #0x08
   0302 08                  945 	.db #0x08
   0303 06                  946 	.db #0x06
   0304 01                  947 	.db #0x01
   0305 01                  948 	.db #0x01
   0306 03                  949 	.db #0x03
   0307 02                  950 	.db #0x02
   0308 02                  951 	.db #0x02
   0309 02                  952 	.db #0x02
   030A 02                  953 	.db #0x02
   030B 02                  954 	.db #0x02
   030C 02                  955 	.db #0x02
   030D 02                  956 	.db #0x02
   030E 02                  957 	.db #0x02
   030F 02                  958 	.db #0x02
   0310 02                  959 	.db #0x02
   0311 02                  960 	.db #0x02
   0312 02                  961 	.db #0x02
   0313 02                  962 	.db #0x02
   0314 02                  963 	.db #0x02
   0315 02                  964 	.db #0x02
   0316 02                  965 	.db #0x02
   0317 04                  966 	.db #0x04
   0318 01                  967 	.db #0x01
   0319 01                  968 	.db #0x01
   031A 01                  969 	.db #0x01
   031B 07                  970 	.db #0x07
   031C 07                  971 	.db #0x07
   031D 07                  972 	.db #0x07
   031E 07                  973 	.db #0x07
   031F 07                  974 	.db #0x07
   0320 07                  975 	.db #0x07
   0321 07                  976 	.db #0x07
   0322 07                  977 	.db #0x07
   0323 07                  978 	.db #0x07
   0324 07                  979 	.db #0x07
   0325 07                  980 	.db #0x07
   0326 07                  981 	.db #0x07
   0327 07                  982 	.db #0x07
   0328 07                  983 	.db #0x07
   0329 07                  984 	.db #0x07
   032A 07                  985 	.db #0x07
   032B 01                  986 	.db #0x01
   032C 01                  987 	.db #0x01
   032D                     988 _MAP_PAL_BG_1:
   032D 01                  989 	.db #0x01
   032E 01                  990 	.db #0x01
   032F 01                  991 	.db #0x01
   0330 01                  992 	.db #0x01
   0331 01                  993 	.db #0x01
   0332 01                  994 	.db #0x01
   0333 01                  995 	.db #0x01
   0334 01                  996 	.db #0x01
   0335 01                  997 	.db #0x01
   0336 01                  998 	.db #0x01
   0337 01                  999 	.db #0x01
   0338 01                 1000 	.db #0x01
   0339 01                 1001 	.db #0x01
   033A 01                 1002 	.db #0x01
   033B 01                 1003 	.db #0x01
   033C 01                 1004 	.db #0x01
   033D 01                 1005 	.db #0x01
   033E 01                 1006 	.db #0x01
   033F 01                 1007 	.db #0x01
   0340 01                 1008 	.db #0x01
   0341 01                 1009 	.db #0x01
   0342 01                 1010 	.db #0x01
   0343 01                 1011 	.db #0x01
   0344 01                 1012 	.db #0x01
   0345 01                 1013 	.db #0x01
   0346 01                 1014 	.db #0x01
   0347 01                 1015 	.db #0x01
   0348 01                 1016 	.db #0x01
   0349 01                 1017 	.db #0x01
   034A 01                 1018 	.db #0x01
   034B 01                 1019 	.db #0x01
   034C 01                 1020 	.db #0x01
   034D 01                 1021 	.db #0x01
   034E 01                 1022 	.db #0x01
   034F 01                 1023 	.db #0x01
   0350 01                 1024 	.db #0x01
   0351 01                 1025 	.db #0x01
   0352 01                 1026 	.db #0x01
   0353 01                 1027 	.db #0x01
   0354 01                 1028 	.db #0x01
   0355 01                 1029 	.db #0x01
   0356 02                 1030 	.db #0x02
   0357 04                 1031 	.db #0x04
   0358 05                 1032 	.db #0x05
   0359 05                 1033 	.db #0x05
   035A 05                 1034 	.db #0x05
   035B 06                 1035 	.db #0x06
   035C 06                 1036 	.db #0x06
   035D 06                 1037 	.db #0x06
   035E 06                 1038 	.db #0x06
   035F 06                 1039 	.db #0x06
   0360 06                 1040 	.db #0x06
   0361 06                 1041 	.db #0x06
   0362 06                 1042 	.db #0x06
   0363 05                 1043 	.db #0x05
   0364 05                 1044 	.db #0x05
   0365 05                 1045 	.db #0x05
   0366 04                 1046 	.db #0x04
   0367 02                 1047 	.db #0x02
   0368 01                 1048 	.db #0x01
   0369 01                 1049 	.db #0x01
   036A 02                 1050 	.db #0x02
   036B 04                 1051 	.db #0x04
   036C 05                 1052 	.db #0x05
   036D 05                 1053 	.db #0x05
   036E 05                 1054 	.db #0x05
   036F 06                 1055 	.db #0x06
   0370 06                 1056 	.db #0x06
   0371 06                 1057 	.db #0x06
   0372 06                 1058 	.db #0x06
   0373 06                 1059 	.db #0x06
   0374 06                 1060 	.db #0x06
   0375 06                 1061 	.db #0x06
   0376 06                 1062 	.db #0x06
   0377 05                 1063 	.db #0x05
   0378 05                 1064 	.db #0x05
   0379 05                 1065 	.db #0x05
   037A 04                 1066 	.db #0x04
   037B 02                 1067 	.db #0x02
   037C 01                 1068 	.db #0x01
   037D 01                 1069 	.db #0x01
   037E 02                 1070 	.db #0x02
   037F 04                 1071 	.db #0x04
   0380 05                 1072 	.db #0x05
   0381 05                 1073 	.db #0x05
   0382 05                 1074 	.db #0x05
   0383 06                 1075 	.db #0x06
   0384 06                 1076 	.db #0x06
   0385 06                 1077 	.db #0x06
   0386 06                 1078 	.db #0x06
   0387 06                 1079 	.db #0x06
   0388 06                 1080 	.db #0x06
   0389 06                 1081 	.db #0x06
   038A 06                 1082 	.db #0x06
   038B 05                 1083 	.db #0x05
   038C 05                 1084 	.db #0x05
   038D 05                 1085 	.db #0x05
   038E 04                 1086 	.db #0x04
   038F 02                 1087 	.db #0x02
   0390 01                 1088 	.db #0x01
   0391 01                 1089 	.db #0x01
   0392 02                 1090 	.db #0x02
   0393 04                 1091 	.db #0x04
   0394 05                 1092 	.db #0x05
   0395 05                 1093 	.db #0x05
   0396 05                 1094 	.db #0x05
   0397 06                 1095 	.db #0x06
   0398 06                 1096 	.db #0x06
   0399 06                 1097 	.db #0x06
   039A 06                 1098 	.db #0x06
   039B 06                 1099 	.db #0x06
   039C 06                 1100 	.db #0x06
   039D 06                 1101 	.db #0x06
   039E 06                 1102 	.db #0x06
   039F 05                 1103 	.db #0x05
   03A0 05                 1104 	.db #0x05
   03A1 05                 1105 	.db #0x05
   03A2 04                 1106 	.db #0x04
   03A3 02                 1107 	.db #0x02
   03A4 01                 1108 	.db #0x01
   03A5 01                 1109 	.db #0x01
   03A6 02                 1110 	.db #0x02
   03A7 04                 1111 	.db #0x04
   03A8 05                 1112 	.db #0x05
   03A9 05                 1113 	.db #0x05
   03AA 05                 1114 	.db #0x05
   03AB 06                 1115 	.db #0x06
   03AC 06                 1116 	.db #0x06
   03AD 06                 1117 	.db #0x06
   03AE 06                 1118 	.db #0x06
   03AF 06                 1119 	.db #0x06
   03B0 06                 1120 	.db #0x06
   03B1 06                 1121 	.db #0x06
   03B2 06                 1122 	.db #0x06
   03B3 05                 1123 	.db #0x05
   03B4 05                 1124 	.db #0x05
   03B5 05                 1125 	.db #0x05
   03B6 04                 1126 	.db #0x04
   03B7 02                 1127 	.db #0x02
   03B8 01                 1128 	.db #0x01
   03B9 01                 1129 	.db #0x01
   03BA 02                 1130 	.db #0x02
   03BB 04                 1131 	.db #0x04
   03BC 05                 1132 	.db #0x05
   03BD 05                 1133 	.db #0x05
   03BE 05                 1134 	.db #0x05
   03BF 06                 1135 	.db #0x06
   03C0 06                 1136 	.db #0x06
   03C1 06                 1137 	.db #0x06
   03C2 06                 1138 	.db #0x06
   03C3 06                 1139 	.db #0x06
   03C4 06                 1140 	.db #0x06
   03C5 06                 1141 	.db #0x06
   03C6 06                 1142 	.db #0x06
   03C7 05                 1143 	.db #0x05
   03C8 05                 1144 	.db #0x05
   03C9 05                 1145 	.db #0x05
   03CA 04                 1146 	.db #0x04
   03CB 02                 1147 	.db #0x02
   03CC 01                 1148 	.db #0x01
   03CD 01                 1149 	.db #0x01
   03CE 02                 1150 	.db #0x02
   03CF 04                 1151 	.db #0x04
   03D0 05                 1152 	.db #0x05
   03D1 05                 1153 	.db #0x05
   03D2 05                 1154 	.db #0x05
   03D3 06                 1155 	.db #0x06
   03D4 06                 1156 	.db #0x06
   03D5 06                 1157 	.db #0x06
   03D6 06                 1158 	.db #0x06
   03D7 06                 1159 	.db #0x06
   03D8 06                 1160 	.db #0x06
   03D9 06                 1161 	.db #0x06
   03DA 06                 1162 	.db #0x06
   03DB 05                 1163 	.db #0x05
   03DC 05                 1164 	.db #0x05
   03DD 05                 1165 	.db #0x05
   03DE 04                 1166 	.db #0x04
   03DF 02                 1167 	.db #0x02
   03E0 01                 1168 	.db #0x01
   03E1 01                 1169 	.db #0x01
   03E2 02                 1170 	.db #0x02
   03E3 04                 1171 	.db #0x04
   03E4 05                 1172 	.db #0x05
   03E5 05                 1173 	.db #0x05
   03E6 05                 1174 	.db #0x05
   03E7 06                 1175 	.db #0x06
   03E8 06                 1176 	.db #0x06
   03E9 06                 1177 	.db #0x06
   03EA 06                 1178 	.db #0x06
   03EB 06                 1179 	.db #0x06
   03EC 06                 1180 	.db #0x06
   03ED 06                 1181 	.db #0x06
   03EE 06                 1182 	.db #0x06
   03EF 05                 1183 	.db #0x05
   03F0 05                 1184 	.db #0x05
   03F1 05                 1185 	.db #0x05
   03F2 04                 1186 	.db #0x04
   03F3 02                 1187 	.db #0x02
   03F4 01                 1188 	.db #0x01
   03F5 01                 1189 	.db #0x01
   03F6 02                 1190 	.db #0x02
   03F7 04                 1191 	.db #0x04
   03F8 05                 1192 	.db #0x05
   03F9 05                 1193 	.db #0x05
   03FA 05                 1194 	.db #0x05
   03FB 06                 1195 	.db #0x06
   03FC 06                 1196 	.db #0x06
   03FD 06                 1197 	.db #0x06
   03FE 06                 1198 	.db #0x06
   03FF 06                 1199 	.db #0x06
   0400 06                 1200 	.db #0x06
   0401 06                 1201 	.db #0x06
   0402 06                 1202 	.db #0x06
   0403 05                 1203 	.db #0x05
   0404 05                 1204 	.db #0x05
   0405 05                 1205 	.db #0x05
   0406 04                 1206 	.db #0x04
   0407 02                 1207 	.db #0x02
   0408 01                 1208 	.db #0x01
   0409 01                 1209 	.db #0x01
   040A 02                 1210 	.db #0x02
   040B 04                 1211 	.db #0x04
   040C 05                 1212 	.db #0x05
   040D 05                 1213 	.db #0x05
   040E 05                 1214 	.db #0x05
   040F 06                 1215 	.db #0x06
   0410 06                 1216 	.db #0x06
   0411 06                 1217 	.db #0x06
   0412 06                 1218 	.db #0x06
   0413 06                 1219 	.db #0x06
   0414 06                 1220 	.db #0x06
   0415 06                 1221 	.db #0x06
   0416 06                 1222 	.db #0x06
   0417 05                 1223 	.db #0x05
   0418 05                 1224 	.db #0x05
   0419 05                 1225 	.db #0x05
   041A 04                 1226 	.db #0x04
   041B 02                 1227 	.db #0x02
   041C 01                 1228 	.db #0x01
   041D 01                 1229 	.db #0x01
   041E 02                 1230 	.db #0x02
   041F 04                 1231 	.db #0x04
   0420 05                 1232 	.db #0x05
   0421 05                 1233 	.db #0x05
   0422 05                 1234 	.db #0x05
   0423 06                 1235 	.db #0x06
   0424 06                 1236 	.db #0x06
   0425 06                 1237 	.db #0x06
   0426 06                 1238 	.db #0x06
   0427 06                 1239 	.db #0x06
   0428 06                 1240 	.db #0x06
   0429 06                 1241 	.db #0x06
   042A 06                 1242 	.db #0x06
   042B 05                 1243 	.db #0x05
   042C 05                 1244 	.db #0x05
   042D 05                 1245 	.db #0x05
   042E 04                 1246 	.db #0x04
   042F 02                 1247 	.db #0x02
   0430 01                 1248 	.db #0x01
   0431 01                 1249 	.db #0x01
   0432 02                 1250 	.db #0x02
   0433 04                 1251 	.db #0x04
   0434 05                 1252 	.db #0x05
   0435 05                 1253 	.db #0x05
   0436 05                 1254 	.db #0x05
   0437 06                 1255 	.db #0x06
   0438 06                 1256 	.db #0x06
   0439 06                 1257 	.db #0x06
   043A 06                 1258 	.db #0x06
   043B 06                 1259 	.db #0x06
   043C 06                 1260 	.db #0x06
   043D 06                 1261 	.db #0x06
   043E 06                 1262 	.db #0x06
   043F 05                 1263 	.db #0x05
   0440 05                 1264 	.db #0x05
   0441 05                 1265 	.db #0x05
   0442 04                 1266 	.db #0x04
   0443 02                 1267 	.db #0x02
   0444 01                 1268 	.db #0x01
   0445 01                 1269 	.db #0x01
   0446 02                 1270 	.db #0x02
   0447 04                 1271 	.db #0x04
   0448 05                 1272 	.db #0x05
   0449 05                 1273 	.db #0x05
   044A 05                 1274 	.db #0x05
   044B 06                 1275 	.db #0x06
   044C 06                 1276 	.db #0x06
   044D 06                 1277 	.db #0x06
   044E 06                 1278 	.db #0x06
   044F 06                 1279 	.db #0x06
   0450 06                 1280 	.db #0x06
   0451 06                 1281 	.db #0x06
   0452 06                 1282 	.db #0x06
   0453 05                 1283 	.db #0x05
   0454 05                 1284 	.db #0x05
   0455 05                 1285 	.db #0x05
   0456 04                 1286 	.db #0x04
   0457 02                 1287 	.db #0x02
   0458 01                 1288 	.db #0x01
   0459 01                 1289 	.db #0x01
   045A 02                 1290 	.db #0x02
   045B 02                 1291 	.db #0x02
   045C 02                 1292 	.db #0x02
   045D 02                 1293 	.db #0x02
   045E 02                 1294 	.db #0x02
   045F 02                 1295 	.db #0x02
   0460 02                 1296 	.db #0x02
   0461 02                 1297 	.db #0x02
   0462 02                 1298 	.db #0x02
   0463 02                 1299 	.db #0x02
   0464 02                 1300 	.db #0x02
   0465 02                 1301 	.db #0x02
   0466 02                 1302 	.db #0x02
   0467 02                 1303 	.db #0x02
   0468 02                 1304 	.db #0x02
   0469 02                 1305 	.db #0x02
   046A 02                 1306 	.db #0x02
   046B 02                 1307 	.db #0x02
   046C 01                 1308 	.db #0x01
   046D 01                 1309 	.db #0x01
   046E 01                 1310 	.db #0x01
   046F 03                 1311 	.db #0x03
   0470 03                 1312 	.db #0x03
   0471 03                 1313 	.db #0x03
   0472 03                 1314 	.db #0x03
   0473 03                 1315 	.db #0x03
   0474 03                 1316 	.db #0x03
   0475 03                 1317 	.db #0x03
   0476 03                 1318 	.db #0x03
   0477 03                 1319 	.db #0x03
   0478 03                 1320 	.db #0x03
   0479 03                 1321 	.db #0x03
   047A 03                 1322 	.db #0x03
   047B 03                 1323 	.db #0x03
   047C 03                 1324 	.db #0x03
   047D 03                 1325 	.db #0x03
   047E 03                 1326 	.db #0x03
   047F 01                 1327 	.db #0x01
   0480 01                 1328 	.db #0x01
   0481                    1329 _PAL_PLAYER:
   0481 00 00              1330 	.dw #0x0000
   0483 E0 6F              1331 	.dw #0x6FE0
   0485 80 46              1332 	.dw #0x4680
   0487 00 00              1333 	.dw #0x0000
   0489                    1334 _PAL_FOOD_TOUCH:
   0489 00 00              1335 	.dw #0x0000
   048B FB 17              1336 	.dw #0x17FB
   048D FB 17              1337 	.dw #0x17FB
   048F 00 00              1338 	.dw #0x0000
   0491                    1339 _PAL_FOOD_0:
   0491 00 00              1340 	.dw #0x0000
   0493 FF 7F              1341 	.dw #0x7FFF
   0495 9A 00              1342 	.dw #0x009A
   0497 00 00              1343 	.dw #0x0000
   0499                    1344 _PAL_BG_SPOTS:
   0499 FF 57              1345 	.dw #0x57FF
   049B BD 4B              1346 	.dw #0x4BBD
   049D 00 00              1347 	.dw #0x0000
   049F 00 00              1348 	.dw #0x0000
   04A1                    1349 _PAL_BG_POT:
   04A1 FF 57              1350 	.dw #0x57FF
   04A3 39 67              1351 	.dw #0x6739
   04A5 BF 1E              1352 	.dw #0x1EBF
   04A7 29 25              1353 	.dw #0x2529
   04A9                    1354 _PAL_BG_POT_DARK:
   04A9 00 00              1355 	.dw #0x0000
   04AB 18 63              1356 	.dw #0x6318
   04AD 00 00              1357 	.dw #0x0000
   04AF 00 00              1358 	.dw #0x0000
   04B1                    1359 _PAL_BG_POT_DARK_2:
   04B1 00 00              1360 	.dw #0x0000
   04B3 F7 5E              1361 	.dw #0x5EF7
   04B5 00 00              1362 	.dw #0x0000
   04B7 00 00              1363 	.dw #0x0000
   04B9                    1364 _PAL_BG_POT_DARK_3:
   04B9 00 00              1365 	.dw #0x0000
   04BB D6 5A              1366 	.dw #0x5AD6
   04BD 00 00              1367 	.dw #0x0000
   04BF 00 00              1368 	.dw #0x0000
   04C1                    1369 _PAL_BG_FIRE:
   04C1 FF 57              1370 	.dw #0x57FF
   04C3 FF 2B              1371 	.dw #0x2BFF
   04C5 1F 00              1372 	.dw #0x001F
   04C7 00 00              1373 	.dw #0x0000
                           1374 ;	src/food_spirit.c 61
                           1375 ;	genLabel
                           1376 ;	genFunction
                           1377 ;	---------------------------------
                           1378 ; Function bounce_food
                           1379 ; ---------------------------------
   04C9                    1380 ___bounce_food_start:
   04C9                    1381 _bounce_food:
   04C9 E8 FF              1382 	lda	sp,-1(sp)
                           1383 ;	src/food_spirit.c 63
                           1384 ;	genIpush
                           1385 ; _saveRegsForCall: sendSetSize: 0 deInUse: 0 bcInUse: 0 deSending: 0
   04CB 21 02 00           1386 	ld	hl,#0x0002
   04CE E5                 1387 	push	hl
                           1388 ;	genIpush
   04CF 21 00 00           1389 	ld	hl,#0x0000
   04D2 E5                 1390 	push	hl
                           1391 ;	genCall
   04D3 CD 00 00           1392 	call	_get_rand
   04D6 4B                 1393 	ld	c,e
   04D7 E8 04              1394 	lda	sp,4(sp)
                           1395 ;	genAssign
                           1396 ;	AOP_STK for _bounce_food_rand_dir_1_1
   04D9 F8 00              1397 	lda	hl,0(sp)
   04DB 71                 1398 	ld	(hl),c
                           1399 ;	src/food_spirit.c 65
                           1400 ;	genCmpEq
                           1401 ;	AOP_STK for _bounce_food_rand_dir_1_1
                           1402 ; genCmpEq: left 1, right 1, result 0
   04DC 7E                 1403 	ld	a,(hl)
   04DD B7                 1404 	or	a,a
   04DE C2 FB 04           1405 	jp	nz,00107$
   04E1 18 03              1406 	jr	00115$
   04E3                    1407 00114$:
   04E3 C3 FB 04           1408 	jp	00107$
   04E6                    1409 00115$:
                           1410 ;	src/food_spirit.c 66
                           1411 ;	genAssign
                           1412 ;	AOP_STK for 
   04E6 F8 03              1413 	lda	hl,3(sp)
   04E8 46                 1414 	ld	b,(hl)
   04E9 23                 1415 	inc	hl
   04EA 4E                 1416 	ld	c,(hl)
                           1417 ;	genPlus
                           1418 ;	genPlusIncr
                           1419 ;	Can't optimise plus by inc, falling back to the normal way
   04EB 78                 1420 	ld	a,b
   04EC C6 03              1421 	add	a,#0x03
   04EE 47                 1422 	ld	b,a
   04EF 79                 1423 	ld	a,c
   04F0 CE 00              1424 	adc	a,#0x00
   04F2 4F                 1425 	ld	c,a
                           1426 ;	genCast
                           1427 ;	AOP_STK for 
   04F3 23                 1428 	inc	hl
   04F4 7E                 1429 	ld	a,(hl)
                           1430 ;	genAssign (pointer)
   04F5 58                 1431 	ld	e,b
   04F6 51                 1432 	ld	d,c
   04F7 12                 1433 	ld	(de),a
                           1434 ;	genGoto
   04F8 C3 30 05           1435 	jp	00109$
                           1436 ;	genLabel
   04FB                    1437 00107$:
                           1438 ;	src/food_spirit.c 67
                           1439 ;	genCmpEq
                           1440 ;	AOP_STK for _bounce_food_rand_dir_1_1
                           1441 ; genCmpEq: left 1, right 1, result 0
   04FB F8 00              1442 	lda	hl,0(sp)
   04FD 7E                 1443 	ld	a,(hl)
   04FE FE 01              1444 	cp	a,#0x01
   0500 C2 17 05           1445 	jp	nz,00104$
   0503 18 03              1446 	jr	00117$
   0505                    1447 00116$:
   0505 C3 17 05           1448 	jp	00104$
   0508                    1449 00117$:
                           1450 ;	src/food_spirit.c 68
                           1451 ;	genAssign
                           1452 ;	AOP_STK for 
   0508 F8 03              1453 	lda	hl,3(sp)
   050A 4E                 1454 	ld	c,(hl)
   050B 23                 1455 	inc	hl
   050C 46                 1456 	ld	b,(hl)
                           1457 ;	genPlus
                           1458 ;	genPlusIncr
   050D 03                 1459 	inc	bc
   050E 03                 1460 	inc	bc
   050F 03                 1461 	inc	bc
                           1462 ;	genCast
                           1463 ;	AOP_STK for 
   0510 F8 07              1464 	lda	hl,7(sp)
   0512 7E                 1465 	ld	a,(hl)
                           1466 ;	genAssign (pointer)
   0513 02                 1467 	ld	(bc),a
                           1468 ;	genGoto
   0514 C3 30 05           1469 	jp	00109$
                           1470 ;	genLabel
   0517                    1471 00104$:
                           1472 ;	src/food_spirit.c 69
                           1473 ;	genCmpEq
                           1474 ;	AOP_STK for _bounce_food_rand_dir_1_1
                           1475 ; genCmpEq: left 1, right 1, result 0
   0517 F8 00              1476 	lda	hl,0(sp)
   0519 7E                 1477 	ld	a,(hl)
   051A FE 02              1478 	cp	a,#0x02
   051C C2 30 05           1479 	jp	nz,00109$
   051F 18 03              1480 	jr	00119$
   0521                    1481 00118$:
   0521 C3 30 05           1482 	jp	00109$
   0524                    1483 00119$:
                           1484 ;	src/food_spirit.c 70
                           1485 ;	genAssign
                           1486 ;	AOP_STK for 
   0524 F8 03              1487 	lda	hl,3(sp)
   0526 4E                 1488 	ld	c,(hl)
   0527 23                 1489 	inc	hl
   0528 46                 1490 	ld	b,(hl)
                           1491 ;	genPlus
                           1492 ;	genPlusIncr
   0529 03                 1493 	inc	bc
   052A 03                 1494 	inc	bc
   052B 03                 1495 	inc	bc
                           1496 ;	genCast
                           1497 ;	AOP_STK for 
   052C F8 09              1498 	lda	hl,9(sp)
   052E 7E                 1499 	ld	a,(hl)
                           1500 ;	genAssign (pointer)
   052F 02                 1501 	ld	(bc),a
                           1502 ;	genLabel
   0530                    1503 00109$:
                           1504 ;	genEndFunction
   0530 E8 01              1505 	lda	sp,1(sp)
   0532 C9                 1506 	ret
   0533                    1507 ___bounce_food_end:
                           1508 ;	src/food_spirit.c 74
                           1509 ;	genLabel
                           1510 ;	genFunction
                           1511 ;	---------------------------------
                           1512 ; Function food_collision
                           1513 ; ---------------------------------
   0533                    1514 ___food_collision_start:
   0533                    1515 _food_collision:
   0533 E8 F8              1516 	lda	sp,-8(sp)
                           1517 ;	src/food_spirit.c 75
                           1518 ;	genAssign
                           1519 ;	AOP_STK for 
   0535 F8 0A              1520 	lda	hl,10(sp)
   0537 4E                 1521 	ld	c,(hl)
   0538 23                 1522 	inc	hl
   0539 46                 1523 	ld	b,(hl)
                           1524 ;	genPlus
                           1525 ;	AOP_STK for _food_collision_sloc0_1_0
                           1526 ;	genPlusIncr
                           1527 ;	Can't optimise plus by inc, falling back to the normal way
   053A 21 01 00           1528 	ld	hl,#0x0001
   053D 09                 1529 	add	hl,bc
   053E 7D                 1530 	ld	a,l
   053F 54                 1531 	ld	d,h
   0540 F8 06              1532 	lda	hl,6(sp)
                           1533 ;	genPointerGet
                           1534 ;	AOP_STK for _food_collision_sloc0_1_0
                           1535 ;	AOP_STK for _food_collision_sloc1_1_0
   0542 22                 1536 	ld	(hl+),a
   0543 72                 1537 	ld	(hl),d
   0544 5F                 1538 	ld	e,a
   0545 1A                 1539 	ld	a,(de)
   0546 2B                 1540 	dec	hl
   0547 2B                 1541 	dec	hl
                           1542 ;	genPlus
                           1543 ;	AOP_STK for _food_collision_sloc1_1_0
                           1544 ;	AOP_STK for _food_collision_sloc0_1_0
                           1545 ;	genPlusIncr
                           1546 ;	Can't optimise plus by inc, falling back to the normal way
   0548 77                 1547 	ld      (hl),a
   0549 7F                 1548 	ld      a,a
   054A C6 10              1549 	add	a,#0x10
   054C 23                 1550 	inc	hl
   054D 77                 1551 	ld	(hl),a
                           1552 ;	genCmpLt
                           1553 ;	AOP_HL for _player_x
                           1554 ;	AOP_STK for _food_collision_sloc0_1_0
   054E 21 00 00           1555 	ld	hl,#_player_x
   0551 7E                 1556 	ld	a,(hl)
   0552 F8 06              1557 	lda	hl,6(sp)
   0554 96                 1558 	sub	a,(hl)
   0555 D2 17 06           1559 	jp	nc,00102$
                           1560 ;	genPlus
                           1561 ;	AOP_HL for _player_x
                           1562 ;	AOP_STK for _food_collision_sloc0_1_0
                           1563 ;	genPlusIncr
                           1564 ;	Can't optimise plus by inc, falling back to the normal way
   0558 21 00 00           1565 	ld	hl,#_player_x
   055B 7E                 1566 	ld	a,(hl)
   055C C6 08              1567 	add	a,#0x08
   055E F8 06              1568 	lda	hl,6(sp)
                           1569 ;	genPlus
                           1570 ;	AOP_STK for _food_collision_sloc0_1_0
                           1571 ;	AOP_STK for _food_collision_sloc2_1_0
                           1572 ;	genPlusIncr
                           1573 ;	Can't optimise plus by inc, falling back to the normal way
   0560 77                 1574 	ld      (hl),a
   0561 7F                 1575 	ld      a,a
   0562 C6 08              1576 	add	a,#0x08
   0564 2B                 1577 	dec	hl
   0565 2B                 1578 	dec	hl
                           1579 ;	genCmpGt
                           1580 ;	AOP_STK for _food_collision_sloc2_1_0
                           1581 ;	AOP_STK for _food_collision_sloc1_1_0
   0566 22                 1582 	ld	(hl+),a
   0567 7E                 1583 	ld	a,(hl)
   0568 2B                 1584 	dec	hl
   0569 96                 1585 	sub	a,(hl)
   056A D2 17 06           1586 	jp	nc,00102$
                           1587 ;	src/food_spirit.c 76
                           1588 ;	genPlus
                           1589 ;	AOP_STK for _food_collision_sloc0_1_0
                           1590 ;	genPlusIncr
                           1591 ;	Can't optimise plus by inc, falling back to the normal way
   056D 21 02 00           1592 	ld	hl,#0x0002
   0570 09                 1593 	add	hl,bc
   0571 7D                 1594 	ld	a,l
   0572 54                 1595 	ld	d,h
   0573 F8 06              1596 	lda	hl,6(sp)
                           1597 ;	genPointerGet
                           1598 ;	AOP_STK for _food_collision_sloc0_1_0
                           1599 ;	AOP_STK for _food_collision_sloc2_1_0
   0575 22                 1600 	ld	(hl+),a
   0576 72                 1601 	ld	(hl),d
   0577 5F                 1602 	ld	e,a
   0578 1A                 1603 	ld	a,(de)
   0579 F8 04              1604 	lda	hl,4(sp)
                           1605 ;	genPlus
                           1606 ;	AOP_STK for _food_collision_sloc2_1_0
                           1607 ;	AOP_STK for _food_collision_sloc1_1_0
                           1608 ;	genPlusIncr
                           1609 ;	Can't optimise plus by inc, falling back to the normal way
   057B 77                 1610 	ld      (hl),a
   057C 7F                 1611 	ld      a,a
   057D C6 10              1612 	add	a,#0x10
   057F 23                 1613 	inc	hl
   0580 77                 1614 	ld	(hl),a
                           1615 ;	genCmpLt
                           1616 ;	AOP_HL for _player_y
                           1617 ;	AOP_STK for _food_collision_sloc1_1_0
   0581 21 01 00           1618 	ld	hl,#_player_y
   0584 7E                 1619 	ld	a,(hl)
   0585 F8 05              1620 	lda	hl,5(sp)
   0587 96                 1621 	sub	a,(hl)
   0588 D2 17 06           1622 	jp	nc,00102$
                           1623 ;	genPlus
                           1624 ;	AOP_HL for _player_y
                           1625 ;	AOP_STK for _food_collision_sloc1_1_0
                           1626 ;	genPlusIncr
                           1627 ;	Can't optimise plus by inc, falling back to the normal way
   058B 21 01 00           1628 	ld	hl,#_player_y
   058E 7E                 1629 	ld	a,(hl)
   058F C6 08              1630 	add	a,#0x08
   0591 F8 05              1631 	lda	hl,5(sp)
                           1632 ;	genPlus
                           1633 ;	AOP_STK for _food_collision_sloc1_1_0
                           1634 ;	AOP_STK for _food_collision_sloc0_1_0
                           1635 ;	genPlusIncr
                           1636 ;	Can't optimise plus by inc, falling back to the normal way
   0593 77                 1637 	ld      (hl),a
   0594 7F                 1638 	ld      a,a
   0595 C6 10              1639 	add	a,#0x10
   0597 23                 1640 	inc	hl
                           1641 ;	genCmpGt
                           1642 ;	AOP_STK for _food_collision_sloc0_1_0
                           1643 ;	AOP_STK for _food_collision_sloc2_1_0
   0598 32                 1644 	ld      (hl-),a
   0599 2B                 1645 	dec	hl
   059A 2A                 1646 	ld	a,(hl+)
   059B 23                 1647 	inc	hl
   059C 96                 1648 	sub	a,(hl)
   059D D2 17 06           1649 	jp	nc,00102$
                           1650 ;	src/food_spirit.c 77
                           1651 ;	genPlus
                           1652 ;	AOP_STK for _food_collision_sloc0_1_0
                           1653 ;	genPlusIncr
                           1654 ;	Can't optimise plus by inc, falling back to the normal way
   05A0 21 07 00           1655 	ld	hl,#0x0007
   05A3 09                 1656 	add	hl,bc
   05A4 7D                 1657 	ld	a,l
   05A5 54                 1658 	ld	d,h
   05A6 F8 06              1659 	lda	hl,6(sp)
                           1660 ;	genPointerGet
                           1661 ;	AOP_STK for _food_collision_sloc0_1_0
                           1662 ;	AOP_STK for _food_collision_sloc2_1_0
   05A8 22                 1663 	ld	(hl+),a
   05A9 72                 1664 	ld	(hl),d
   05AA 5F                 1665 	ld	e,a
   05AB 1A                 1666 	ld	a,(de)
   05AC F8 04              1667 	lda	hl,4(sp)
   05AE 77                 1668 	ld	(hl),a
                           1669 ;	genIpush
                           1670 ; _saveRegsForCall: sendSetSize: 0 deInUse: 0 bcInUse: 1 deSending: 0
   05AF C5                 1671 	push	bc
   05B0 3E 01              1672 	ld	a,#0x01
   05B2 F5                 1673 	push	af
   05B3 33                 1674 	inc	sp
                           1675 ;	genIpush
                           1676 ;	AOP_STK for _food_collision_sloc2_1_0
   05B4 7E                 1677 	ld	a,(hl)
   05B5 F5                 1678 	push	af
   05B6 33                 1679 	inc	sp
                           1680 ;	genCall
   05B7 CD 00 00           1681 	call	_set_sprite_prop
   05BA E8 02              1682 	lda	sp,2(sp)
   05BC C1                 1683 	pop	bc
                           1684 ;	src/food_spirit.c 78
                           1685 ;	genPlus
                           1686 ;	AOP_STK for _food_collision_sloc0_1_0
                           1687 ;	genPlusIncr
                           1688 ;	Can't optimise plus by inc, falling back to the normal way
   05BD 21 08 00           1689 	ld	hl,#0x0008
   05C0 09                 1690 	add	hl,bc
   05C1 7D                 1691 	ld	a,l
   05C2 54                 1692 	ld	d,h
   05C3 F8 06              1693 	lda	hl,6(sp)
                           1694 ;	genPointerGet
                           1695 ;	AOP_STK for _food_collision_sloc0_1_0
                           1696 ;	AOP_STK for _food_collision_sloc2_1_0
   05C5 22                 1697 	ld	(hl+),a
   05C6 72                 1698 	ld	(hl),d
   05C7 5F                 1699 	ld	e,a
   05C8 1A                 1700 	ld	a,(de)
   05C9 F8 04              1701 	lda	hl,4(sp)
   05CB 77                 1702 	ld	(hl),a
                           1703 ;	genIpush
                           1704 ; _saveRegsForCall: sendSetSize: 0 deInUse: 0 bcInUse: 1 deSending: 0
   05CC C5                 1705 	push	bc
   05CD 3E 01              1706 	ld	a,#0x01
   05CF F5                 1707 	push	af
   05D0 33                 1708 	inc	sp
                           1709 ;	genIpush
                           1710 ;	AOP_STK for _food_collision_sloc2_1_0
   05D1 7E                 1711 	ld	a,(hl)
   05D2 F5                 1712 	push	af
   05D3 33                 1713 	inc	sp
                           1714 ;	genCall
   05D4 CD 00 00           1715 	call	_set_sprite_prop
   05D7 E8 02              1716 	lda	sp,2(sp)
   05D9 C1                 1717 	pop	bc
                           1718 ;	src/food_spirit.c 79
                           1719 ;	genPlus
                           1720 ;	AOP_STK for _food_collision_sloc0_1_0
                           1721 ;	genPlusIncr
                           1722 ;	Can't optimise plus by inc, falling back to the normal way
   05DA 21 09 00           1723 	ld	hl,#0x0009
   05DD 09                 1724 	add	hl,bc
   05DE 7D                 1725 	ld	a,l
   05DF 54                 1726 	ld	d,h
   05E0 F8 06              1727 	lda	hl,6(sp)
                           1728 ;	genPointerGet
                           1729 ;	AOP_STK for _food_collision_sloc0_1_0
                           1730 ;	AOP_STK for _food_collision_sloc2_1_0
   05E2 22                 1731 	ld	(hl+),a
   05E3 72                 1732 	ld	(hl),d
   05E4 5F                 1733 	ld	e,a
   05E5 1A                 1734 	ld	a,(de)
   05E6 F8 04              1735 	lda	hl,4(sp)
   05E8 77                 1736 	ld	(hl),a
                           1737 ;	genIpush
                           1738 ; _saveRegsForCall: sendSetSize: 0 deInUse: 0 bcInUse: 1 deSending: 0
   05E9 C5                 1739 	push	bc
   05EA 3E 01              1740 	ld	a,#0x01
   05EC F5                 1741 	push	af
   05ED 33                 1742 	inc	sp
                           1743 ;	genIpush
                           1744 ;	AOP_STK for _food_collision_sloc2_1_0
   05EE 7E                 1745 	ld	a,(hl)
   05EF F5                 1746 	push	af
   05F0 33                 1747 	inc	sp
                           1748 ;	genCall
   05F1 CD 00 00           1749 	call	_set_sprite_prop
   05F4 E8 02              1750 	lda	sp,2(sp)
   05F6 C1                 1751 	pop	bc
                           1752 ;	src/food_spirit.c 80
                           1753 ;	genPlus
                           1754 ;	AOP_STK for _food_collision_sloc0_1_0
                           1755 ;	genPlusIncr
                           1756 ;	Can't optimise plus by inc, falling back to the normal way
   05F7 21 0A 00           1757 	ld	hl,#0x000A
   05FA 09                 1758 	add	hl,bc
   05FB 7D                 1759 	ld	a,l
   05FC 54                 1760 	ld	d,h
   05FD F8 06              1761 	lda	hl,6(sp)
                           1762 ;	genPointerGet
                           1763 ;	AOP_STK for _food_collision_sloc0_1_0
                           1764 ;	AOP_STK for _food_collision_sloc2_1_0
   05FF 22                 1765 	ld	(hl+),a
   0600 72                 1766 	ld	(hl),d
   0601 5F                 1767 	ld	e,a
   0602 1A                 1768 	ld	a,(de)
   0603 F8 04              1769 	lda	hl,4(sp)
   0605 77                 1770 	ld	(hl),a
                           1771 ;	genIpush
                           1772 ; _saveRegsForCall: sendSetSize: 0 deInUse: 0 bcInUse: 1 deSending: 0
   0606 C5                 1773 	push	bc
   0607 3E 01              1774 	ld	a,#0x01
   0609 F5                 1775 	push	af
   060A 33                 1776 	inc	sp
                           1777 ;	genIpush
                           1778 ;	AOP_STK for _food_collision_sloc2_1_0
   060B 7E                 1779 	ld	a,(hl)
   060C F5                 1780 	push	af
   060D 33                 1781 	inc	sp
                           1782 ;	genCall
   060E CD 00 00           1783 	call	_set_sprite_prop
   0611 E8 02              1784 	lda	sp,2(sp)
   0613 C1                 1785 	pop	bc
                           1786 ;	genGoto
   0614 C3 B3 06           1787 	jp	00107$
                           1788 ;	genLabel
   0617                    1789 00102$:
                           1790 ;	src/food_spirit.c 82
                           1791 ;	genPlus
                           1792 ;	AOP_STK for _food_collision_sloc0_1_0
                           1793 ;	genPlusIncr
                           1794 ;	Can't optimise plus by inc, falling back to the normal way
   0617 21 06 00           1795 	ld	hl,#0x0006
   061A 09                 1796 	add	hl,bc
   061B 7D                 1797 	ld	a,l
   061C 54                 1798 	ld	d,h
   061D F8 06              1799 	lda	hl,6(sp)
                           1800 ;	genPointerGet
                           1801 ;	AOP_STK for _food_collision_sloc0_1_0
                           1802 ;	AOP_STK for _food_collision_sloc2_1_0
   061F 22                 1803 	ld	(hl+),a
   0620 72                 1804 	ld	(hl),d
   0621 5F                 1805 	ld	e,a
   0622 1A                 1806 	ld	a,(de)
   0623 F8 04              1807 	lda	hl,4(sp)
   0625 77                 1808 	ld	(hl),a
                           1809 ;	genPlus
                           1810 ;	AOP_STK for _food_collision_sloc3_1_0
                           1811 ;	genPlusIncr
                           1812 ;	Can't optimise plus by inc, falling back to the normal way
   0626 21 07 00           1813 	ld	hl,#0x0007
   0629 09                 1814 	add	hl,bc
   062A 7D                 1815 	ld	a,l
   062B 54                 1816 	ld	d,h
   062C F8 02              1817 	lda	hl,2(sp)
                           1818 ;	genPointerGet
                           1819 ;	AOP_STK for _food_collision_sloc3_1_0
                           1820 ;	AOP_STK for _food_collision_sloc1_1_0
   062E 22                 1821 	ld	(hl+),a
   062F 72                 1822 	ld	(hl),d
   0630 5F                 1823 	ld	e,a
   0631 1A                 1824 	ld	a,(de)
   0632 23                 1825 	inc	hl
   0633 23                 1826 	inc	hl
   0634 77                 1827 	ld	(hl),a
                           1828 ;	genIpush
                           1829 ; _saveRegsForCall: sendSetSize: 0 deInUse: 0 bcInUse: 1 deSending: 0
   0635 C5                 1830 	push	bc
                           1831 ;	AOP_STK for _food_collision_sloc2_1_0
   0636 2B                 1832 	dec	hl
   0637 7E                 1833 	ld	a,(hl)
   0638 F5                 1834 	push	af
   0639 33                 1835 	inc	sp
                           1836 ;	genIpush
                           1837 ;	AOP_STK for _food_collision_sloc1_1_0
   063A 23                 1838 	inc	hl
   063B 7E                 1839 	ld	a,(hl)
   063C F5                 1840 	push	af
   063D 33                 1841 	inc	sp
                           1842 ;	genCall
   063E CD 00 00           1843 	call	_set_sprite_prop
   0641 E8 02              1844 	lda	sp,2(sp)
   0643 C1                 1845 	pop	bc
                           1846 ;	src/food_spirit.c 83
                           1847 ;	genPointerGet
                           1848 ;	AOP_STK for _food_collision_sloc0_1_0
                           1849 ;	AOP_STK for _food_collision_sloc3_1_0
   0644 F8 06              1850 	lda	hl,6(sp)
   0646 5E                 1851 	ld	e,(hl)
   0647 23                 1852 	inc	hl
   0648 56                 1853 	ld	d,(hl)
   0649 1A                 1854 	ld	a,(de)
   064A F8 02              1855 	lda	hl,2(sp)
   064C 77                 1856 	ld	(hl),a
                           1857 ;	genPlus
                           1858 ;	AOP_STK for _food_collision_sloc4_1_0
                           1859 ;	genPlusIncr
                           1860 ;	Can't optimise plus by inc, falling back to the normal way
   064D 21 08 00           1861 	ld	hl,#0x0008
   0650 09                 1862 	add	hl,bc
   0651 7D                 1863 	ld	a,l
   0652 54                 1864 	ld	d,h
   0653 F8 00              1865 	lda	hl,0(sp)
                           1866 ;	genPointerGet
                           1867 ;	AOP_STK for _food_collision_sloc4_1_0
                           1868 ;	AOP_STK for _food_collision_sloc2_1_0
   0655 22                 1869 	ld	(hl+),a
   0656 72                 1870 	ld	(hl),d
   0657 5F                 1871 	ld	e,a
   0658 1A                 1872 	ld	a,(de)
   0659 F8 04              1873 	lda	hl,4(sp)
   065B 77                 1874 	ld	(hl),a
                           1875 ;	genIpush
                           1876 ; _saveRegsForCall: sendSetSize: 0 deInUse: 0 bcInUse: 1 deSending: 0
   065C C5                 1877 	push	bc
                           1878 ;	AOP_STK for _food_collision_sloc3_1_0
   065D 2B                 1879 	dec	hl
   065E 2B                 1880 	dec	hl
   065F 7E                 1881 	ld	a,(hl)
   0660 F5                 1882 	push	af
   0661 33                 1883 	inc	sp
                           1884 ;	genIpush
                           1885 ;	AOP_STK for _food_collision_sloc2_1_0
   0662 23                 1886 	inc	hl
   0663 23                 1887 	inc	hl
   0664 7E                 1888 	ld	a,(hl)
   0665 F5                 1889 	push	af
   0666 33                 1890 	inc	sp
                           1891 ;	genCall
   0667 CD 00 00           1892 	call	_set_sprite_prop
   066A E8 02              1893 	lda	sp,2(sp)
   066C C1                 1894 	pop	bc
                           1895 ;	src/food_spirit.c 84
                           1896 ;	genPointerGet
                           1897 ;	AOP_STK for _food_collision_sloc0_1_0
                           1898 ;	AOP_STK for _food_collision_sloc4_1_0
   066D F8 06              1899 	lda	hl,6(sp)
   066F 5E                 1900 	ld	e,(hl)
   0670 23                 1901 	inc	hl
   0671 56                 1902 	ld	d,(hl)
   0672 1A                 1903 	ld	a,(de)
   0673 F8 00              1904 	lda	hl,0(sp)
   0675 77                 1905 	ld	(hl),a
                           1906 ;	genPlus
                           1907 ;	AOP_STK for _food_collision_sloc3_1_0
                           1908 ;	genPlusIncr
                           1909 ;	Can't optimise plus by inc, falling back to the normal way
   0676 21 09 00           1910 	ld	hl,#0x0009
   0679 09                 1911 	add	hl,bc
   067A 7D                 1912 	ld	a,l
   067B 54                 1913 	ld	d,h
   067C F8 02              1914 	lda	hl,2(sp)
                           1915 ;	genPointerGet
                           1916 ;	AOP_STK for _food_collision_sloc3_1_0
                           1917 ;	AOP_STK for _food_collision_sloc2_1_0
   067E 22                 1918 	ld	(hl+),a
   067F 72                 1919 	ld	(hl),d
   0680 5F                 1920 	ld	e,a
   0681 1A                 1921 	ld	a,(de)
   0682 23                 1922 	inc	hl
   0683 77                 1923 	ld	(hl),a
                           1924 ;	genIpush
                           1925 ; _saveRegsForCall: sendSetSize: 0 deInUse: 0 bcInUse: 1 deSending: 0
   0684 C5                 1926 	push	bc
                           1927 ;	AOP_STK for _food_collision_sloc4_1_0
   0685 F8 02              1928 	lda	hl,2(sp)
   0687 7E                 1929 	ld	a,(hl)
   0688 F5                 1930 	push	af
   0689 33                 1931 	inc	sp
                           1932 ;	genIpush
                           1933 ;	AOP_STK for _food_collision_sloc2_1_0
   068A F8 07              1934 	lda	hl,7(sp)
   068C 7E                 1935 	ld	a,(hl)
   068D F5                 1936 	push	af
   068E 33                 1937 	inc	sp
                           1938 ;	genCall
   068F CD 00 00           1939 	call	_set_sprite_prop
   0692 E8 02              1940 	lda	sp,2(sp)
   0694 C1                 1941 	pop	bc
                           1942 ;	src/food_spirit.c 85
                           1943 ;	genPointerGet
                           1944 ;	AOP_STK for _food_collision_sloc0_1_0
                           1945 ;	AOP_STK for _food_collision_sloc4_1_0
   0695 F8 06              1946 	lda	hl,6(sp)
   0697 5E                 1947 	ld	e,(hl)
   0698 23                 1948 	inc	hl
   0699 56                 1949 	ld	d,(hl)
   069A 1A                 1950 	ld	a,(de)
   069B F8 00              1951 	lda	hl,0(sp)
   069D 77                 1952 	ld	(hl),a
                           1953 ;	genPlus
                           1954 ;	genPlusIncr
                           1955 ;	Can't optimise plus by inc, falling back to the normal way
   069E 79                 1956 	ld	a,c
   069F C6 0A              1957 	add	a,#0x0A
   06A1 4F                 1958 	ld	c,a
   06A2 78                 1959 	ld	a,b
   06A3 CE 00              1960 	adc	a,#0x00
   06A5 47                 1961 	ld	b,a
                           1962 ;	genPointerGet
   06A6 0A                 1963 	ld	a,(bc)
   06A7 4F                 1964 	ld	c,a
                           1965 ;	genIpush
                           1966 ; _saveRegsForCall: sendSetSize: 0 deInUse: 0 bcInUse: 0 deSending: 0
                           1967 ;	AOP_STK for _food_collision_sloc4_1_0
   06A8 7E                 1968 	ld	a,(hl)
   06A9 F5                 1969 	push	af
   06AA 33                 1970 	inc	sp
                           1971 ;	genIpush
   06AB 79                 1972 	ld	a,c
   06AC F5                 1973 	push	af
   06AD 33                 1974 	inc	sp
                           1975 ;	genCall
   06AE CD 00 00           1976 	call	_set_sprite_prop
   06B1 E8 02              1977 	lda	sp,2(sp)
                           1978 ;	genLabel
   06B3                    1979 00107$:
                           1980 ;	genEndFunction
   06B3 E8 08              1981 	lda	sp,8(sp)
   06B5 C9                 1982 	ret
   06B6                    1983 ___food_collision_end:
                           1984 ;	src/food_spirit.c 89
                           1985 ;	genLabel
                           1986 ;	genFunction
                           1987 ;	---------------------------------
                           1988 ; Function food_logic
                           1989 ; ---------------------------------
   06B6                    1990 ___food_logic_start:
   06B6                    1991 _food_logic:
   06B6 E8 F5              1992 	lda	sp,-11(sp)
                           1993 ;	src/food_spirit.c 92
                           1994 ;	genCall
                           1995 ; _saveRegsForCall: sendSetSize: 0 deInUse: 0 bcInUse: 0 deSending: 0
   06B8 CD 00 00           1996 	call	_get_rand_ready
   06BB 4B                 1997 	ld	c,e
                           1998 ;	genCmpEq
                           1999 ; genCmpEq: left 1, right 1, result 0
   06BC 79                 2000 	ld	a,c
   06BD B7                 2001 	or	a,a
                           2002 ;	src/food_spirit.c 93
                           2003 ;	genRet
                           2004 ;	genLabel
   06BE CA C4 06           2005 	jp	z,00102$
   06C1                    2006 00170$:
   06C1 C3 7D 0A           2007 	jp	00149$
   06C4                    2008 00102$:
                           2009 ;	src/food_spirit.c 96
                           2010 ;	genAssign
                           2011 ;	AOP_STK for _food_logic_i_1_1
   06C4 F8 0A              2012 	lda	hl,10(sp)
   06C6 36 00              2013 	ld	(hl),#0x00
                           2014 ;	genLabel
   06C8                    2015 00145$:
                           2016 ;	genCmpLt
                           2017 ;	AOP_STK for _food_logic_i_1_1
   06C8 F8 0A              2018 	lda	hl,10(sp)
   06CA 7E                 2019 	ld	a,(hl)
   06CB FE 08              2020 	cp	#0x08
   06CD D2 7D 0A           2021 	jp	nc,00149$
                           2022 ;	src/food_spirit.c 98
                           2023 ;	genMult
                           2024 ;	AOP_STK for _food_logic_i_1_1
                           2025 ;	AOP_STK for _food_logic_sloc0_1_0
   06D0 5E                 2026 	ld	e,(hl)
   06D1 16 00              2027 	ld	d,#0x00
   06D3 6B                 2028 	ld	l,e
   06D4 62                 2029 	ld	h,d
   06D5 29                 2030 	add	hl,hl
   06D6 29                 2031 	add	hl,hl
   06D7 19                 2032 	add	hl,de
   06D8 29                 2033 	add	hl,hl
   06D9 19                 2034 	add	hl,de
   06DA 7D                 2035 	ld	a,l
   06DB 54                 2036 	ld	d,h
   06DC F8 06              2037 	lda	hl,6(sp)
   06DE 22                 2038 	ld	(hl+),a
   06DF 72                 2039 	ld	(hl),d
                           2040 ;	genPlus
                           2041 ;	AOP_STK for _food_logic_sloc0_1_0
                           2042 ;	AOP_STK for _food_logic_f_2_3
                           2043 ;	Can't optimise plus by inc, falling back to the normal way
   06E0 11 07 00           2044 	ld	de,#_foods
   06E3 2B                 2045 	dec	hl
   06E4 2A                 2046 	ld	a,(hl+)
   06E5 66                 2047 	ld	h,(hl)
   06E6 6F                 2048 	ld	l,a
   06E7 19                 2049 	add	hl,de
   06E8 7D                 2050 	ld	a,l
   06E9 54                 2051 	ld	d,h
   06EA F8 08              2052 	lda	hl,8(sp)
   06EC 22                 2053 	ld	(hl+),a
   06ED 72                 2054 	ld	(hl),d
                           2055 ;	genAssign
                           2056 ;	AOP_STK for _food_logic_f_2_3
                           2057 ;	(registers are the same)
                           2058 ;	src/food_spirit.c 100
                           2059 ;	genPlus
                           2060 ;	AOP_STK for _food_logic_f_2_3
                           2061 ;	AOP_STK for _food_logic_sloc0_1_0
                           2062 ;	genPlusIncr
                           2063 ;	Can't optimise plus by inc, falling back to the normal way
   06EE 2B                 2064 	dec	hl
   06EF 5E                 2065 	ld	e,(hl)
   06F0 23                 2066 	inc	hl
   06F1 56                 2067 	ld	d,(hl)
   06F2 21 05 00           2068 	ld	hl,#0x0005
   06F5 19                 2069 	add	hl,de
   06F6 7D                 2070 	ld	a,l
   06F7 54                 2071 	ld	d,h
   06F8 F8 06              2072 	lda	hl,6(sp)
                           2073 ;	genPointerGet
                           2074 ;	AOP_STK for _food_logic_sloc0_1_0
   06FA 22                 2075 	ld	(hl+),a
   06FB 72                 2076 	ld	(hl),d
   06FC 5F                 2077 	ld	e,a
   06FD 1A                 2078 	ld	a,(de)
                           2079 ;	genCmpEq
                           2080 ; genCmpEq: left 1, right 1, result 0
   06FE 4F                 2081 	ld	c,a
   06FF B7                 2082 	or	a,a
   0700 C2 77 0A           2083 	jp	nz,00147$
   0703 18 03              2084 	jr	00172$
   0705                    2085 00171$:
   0705 C3 77 0A           2086 	jp	00147$
   0708                    2087 00172$:
                           2088 ;	src/food_spirit.c 101
                           2089 ;	genPlus
                           2090 ;	AOP_STK for _food_logic_f_2_3
                           2091 ;	genPlusIncr
   0708 F8 08              2092 	lda	hl,8(sp)
   070A 4E                 2093 	ld	c,(hl)
   070B 23                 2094 	inc	hl
   070C 46                 2095 	ld	b,(hl)
   070D 03                 2096 	inc	bc
   070E 03                 2097 	inc	bc
                           2098 ;	genPointerGet
                           2099 ;	AOP_STK for _food_logic_sloc0_1_0
   070F 0A                 2100 	ld	a,(bc)
   0710 F8 06              2101 	lda	hl,6(sp)
                           2102 ;	genMinus
                           2103 ;	AOP_STK for _food_logic_sloc0_1_0
                           2104 ;	AOP_STK for _food_logic_sloc1_1_0
   0712 77                 2105 	ld      (hl),a
                           2106 ; Removed redundent load
   0713 C6 F8              2107 	add	a,#0xF8
   0715 2B                 2108 	dec	hl
                           2109 ;	genCmpLt
                           2110 ;	AOP_STK for _food_logic_sloc1_1_0
   0716 77                 2111 	ld      (hl),a
                           2112 ; Removed redundent load
   0717 FE 78              2113 	cp	#0x78
   0719 D2 39 07           2114 	jp	nc,00104$
                           2115 ;	genPlus
                           2116 ;	AOP_STK for _food_logic_f_2_3
                           2117 ;	AOP_STK for _food_logic_sloc2_1_0
                           2118 ;	genPlusIncr
                           2119 ;	Can't optimise plus by inc, falling back to the normal way
   071C F8 08              2120 	lda	hl,8(sp)
   071E 5E                 2121 	ld	e,(hl)
   071F 23                 2122 	inc	hl
   0720 56                 2123 	ld	d,(hl)
   0721 21 03 00           2124 	ld	hl,#0x0003
   0724 19                 2125 	add	hl,de
   0725 7D                 2126 	ld	a,l
   0726 54                 2127 	ld	d,h
   0727 F8 03              2128 	lda	hl,3(sp)
                           2129 ;	genPointerGet
                           2130 ;	AOP_STK for _food_logic_sloc2_1_0
                           2131 ;	AOP_STK for _food_logic_sloc1_1_0
   0729 22                 2132 	ld	(hl+),a
   072A 72                 2133 	ld	(hl),d
   072B 5F                 2134 	ld	e,a
   072C 1A                 2135 	ld	a,(de)
   072D 23                 2136 	inc	hl
                           2137 ;	genCmpEq
                           2138 ;	AOP_STK for _food_logic_sloc1_1_0
                           2139 ; genCmpEq: left 1, right 1, result 0
   072E 77                 2140 	ld      (hl),a
                           2141 ; Removed redundent load
   072F B7                 2142 	or	a,a
   0730 CA 39 07           2143 	jp	z,00104$
   0733                    2144 00173$:
                           2145 ;	src/food_spirit.c 102
                           2146 ;	genPlus
                           2147 ;	AOP_STK for _food_logic_sloc0_1_0
                           2148 ;	genPlusIncr
                           2149 ;	Can't optimise plus by inc, falling back to the normal way
   0733 F8 06              2150 	lda	hl,6(sp)
   0735 7E                 2151 	ld	a,(hl)
   0736 C6 01              2152 	add	a,#0x01
                           2153 ;	genAssign (pointer)
   0738 02                 2154 	ld	(bc),a
                           2155 ;	genLabel
   0739                    2156 00104$:
                           2157 ;	src/food_spirit.c 105
                           2158 ;	genPlus
                           2159 ;	AOP_STK for _food_logic_f_2_3
                           2160 ;	AOP_STK for _food_logic_sloc2_1_0
                           2161 ;	genPlusIncr
                           2162 ;	Can't optimise plus by inc, falling back to the normal way
   0739 F8 08              2163 	lda	hl,8(sp)
   073B 5E                 2164 	ld	e,(hl)
   073C 23                 2165 	inc	hl
   073D 56                 2166 	ld	d,(hl)
   073E 21 03 00           2167 	ld	hl,#0x0003
   0741 19                 2168 	add	hl,de
   0742 7D                 2169 	ld	a,l
   0743 54                 2170 	ld	d,h
   0744 F8 03              2171 	lda	hl,3(sp)
                           2172 ;	genPointerGet
                           2173 ;	AOP_STK for _food_logic_sloc2_1_0
                           2174 ;	AOP_STK for _food_logic_sloc1_1_0
   0746 22                 2175 	ld	(hl+),a
   0747 72                 2176 	ld	(hl),d
   0748 5F                 2177 	ld	e,a
   0749 1A                 2178 	ld	a,(de)
   074A 23                 2179 	inc	hl
   074B 77                 2180 	ld	(hl),a
                           2181 ;	genCmpGt
                           2182 ;	AOP_STK for _food_logic_sloc1_1_0
   074C 3E 07              2183 	ld	a,#0x07
   074E 96                 2184 	sub	a,(hl)
   074F DA 6C 0A           2185 	jp	c,00142$
                           2186 ;	genJumpTab
                           2187 ;	AOP_STK for _food_logic_sloc1_1_0
   0752 5E                 2188 	ld	e,(hl)
   0753 16 00              2189 	ld	d,#0x00
   0755 21 5C 07           2190 	ld	hl,#00174$
   0758 19                 2191 	add	hl,de
   0759 19                 2192 	add	hl,de
   075A 19                 2193 	add	hl,de
   075B E9                 2194 	jp	(hl)
   075C                    2195 00174$:
   075C C3 74 07           2196 	jp	00109$
   075F C3 BD 07           2197 	jp	00114$
   0762 C3 2D 08           2198 	jp	00118$
   0765 C3 84 08           2199 	jp	00123$
   0768 C3 ED 08           2200 	jp	00127$
   076B C3 33 09           2201 	jp	00132$
   076E C3 A2 09           2202 	jp	00136$
   0771 C3 FE 09           2203 	jp	00141$
                           2204 ;	src/food_spirit.c 111
                           2205 ;	genLabel
   0774                    2206 00109$:
                           2207 ;	src/food_spirit.c 107
                           2208 ;	genPointerGet
                           2209 ;	AOP_STK for _food_logic_sloc2_1_0
   0774 0A                 2210 	ld	a,(bc)
   0775 F8 03              2211 	lda	hl,3(sp)
                           2212 ;	genMinus
                           2213 ;	AOP_STK for _food_logic_sloc2_1_0
                           2214 ;	AOP_STK for _food_logic_sloc1_1_0
   0777 77                 2215 	ld      (hl),a
                           2216 ; Removed redundent load
   0778 C6 F8              2217 	add	a,#0xF8
   077A 23                 2218 	inc	hl
   077B 23                 2219 	inc	hl
   077C 77                 2220 	ld	(hl),a
                           2221 ;	genCmpGt
                           2222 ;	AOP_STK for _food_logic_sloc1_1_0
   077D 3E 24              2223 	ld	a,#0x24
   077F 96                 2224 	sub	a,(hl)
   0780 D2 A1 07           2225 	jp	nc,00107$
                           2226 ;	src/food_spirit.c 108
                           2227 ;	genPlus
                           2228 ;	AOP_STK for _food_logic_f_2_3
                           2229 ;	AOP_STK for _food_logic_sloc0_1_0
                           2230 ;	genPlusIncr
                           2231 ;	Can't optimise plus by inc, falling back to the normal way
   0783 F8 08              2232 	lda	hl,8(sp)
   0785 5E                 2233 	ld	e,(hl)
   0786 23                 2234 	inc	hl
   0787 56                 2235 	ld	d,(hl)
   0788 21 04 00           2236 	ld	hl,#0x0004
   078B 19                 2237 	add	hl,de
   078C 7D                 2238 	ld	a,l
   078D 54                 2239 	ld	d,h
   078E F8 06              2240 	lda	hl,6(sp)
                           2241 ;	genPointerGet
                           2242 ;	AOP_STK for _food_logic_sloc0_1_0
                           2243 ;	AOP_STK for _food_logic_sloc1_1_0
   0790 22                 2244 	ld	(hl+),a
   0791 72                 2245 	ld	(hl),d
   0792 5F                 2246 	ld	e,a
   0793 1A                 2247 	ld	a,(de)
   0794 2B                 2248 	dec	hl
   0795 2B                 2249 	dec	hl
                           2250 ;	genMinus
                           2251 ;	AOP_STK for _food_logic_sloc2_1_0
                           2252 ;	AOP_STK for _food_logic_sloc1_1_0
                           2253 ;	AOP_STK for _food_logic_sloc0_1_0
   0796 32                 2254 	ld      (hl-),a
   0797 2B                 2255 	dec	hl
   0798 2A                 2256 	ld	a,(hl+)
   0799 23                 2257 	inc	hl
   079A 96                 2258 	sub	a,(hl)
   079B 23                 2259 	inc	hl
                           2260 ;	genAssign (pointer)
                           2261 ;	AOP_STK for _food_logic_sloc0_1_0
   079C 77                 2262 	ld      (hl),a
                           2263 ; Removed redundent load
   079D 02                 2264 	ld	(bc),a
                           2265 ;	genGoto
   079E C3 6C 0A           2266 	jp	00142$
                           2267 ;	genLabel
   07A1                    2268 00107$:
                           2269 ;	src/food_spirit.c 110
                           2270 ;	genIpush
                           2271 ; _saveRegsForCall: sendSetSize: 0 deInUse: 0 bcInUse: 1 deSending: 0
   07A1 C5                 2272 	push	bc
   07A2 21 05 00           2273 	ld	hl,#0x0005
   07A5 E5                 2274 	push	hl
                           2275 ;	genIpush
   07A6 21 03 00           2276 	ld	hl,#0x0003
   07A9 E5                 2277 	push	hl
                           2278 ;	genIpush
   07AA 21 04 00           2279 	ld	hl,#0x0004
   07AD E5                 2280 	push	hl
                           2281 ;	genIpush
                           2282 ;	AOP_STK for _food_logic_f_2_3
   07AE F8 10              2283 	lda	hl,16(sp)
   07B0 2A                 2284 	ld	a,(hl+)
   07B1 66                 2285 	ld	h,(hl)
   07B2 6F                 2286 	ld	l,a
   07B3 E5                 2287 	push	hl
                           2288 ;	genCall
   07B4 CD C9 04           2289 	call	_bounce_food
   07B7 E8 08              2290 	lda	sp,8(sp)
   07B9 C1                 2291 	pop	bc
                           2292 ;	src/food_spirit.c 113
                           2293 ;	genGoto
   07BA C3 6C 0A           2294 	jp	00142$
                           2295 ;	src/food_spirit.c 121
                           2296 ;	genLabel
   07BD                    2297 00114$:
                           2298 ;	src/food_spirit.c 116
                           2299 ;	genPointerGet
                           2300 ;	AOP_STK for _food_logic_sloc2_1_0
   07BD 0A                 2301 	ld	a,(bc)
   07BE F8 03              2302 	lda	hl,3(sp)
                           2303 ;	genMinus
                           2304 ;	AOP_STK for _food_logic_sloc2_1_0
                           2305 ;	AOP_STK for _food_logic_sloc1_1_0
   07C0 77                 2306 	ld      (hl),a
                           2307 ; Removed redundent load
   07C1 C6 F8              2308 	add	a,#0xF8
   07C3 23                 2309 	inc	hl
   07C4 23                 2310 	inc	hl
   07C5 77                 2311 	ld	(hl),a
                           2312 ;	genCmpGt
                           2313 ;	AOP_STK for _food_logic_sloc1_1_0
   07C6 3E 24              2314 	ld	a,#0x24
   07C8 96                 2315 	sub	a,(hl)
   07C9 D2 11 08           2316 	jp	nc,00111$
                           2317 ;	genPlus
                           2318 ;	AOP_STK for _food_logic_f_2_3
                           2319 ;	AOP_STK for _food_logic_sloc0_1_0
                           2320 ;	genPlusIncr
                           2321 ;	Can't optimise plus by inc, falling back to the normal way
   07CC F8 08              2322 	lda	hl,8(sp)
   07CE 5E                 2323 	ld	e,(hl)
   07CF 23                 2324 	inc	hl
   07D0 56                 2325 	ld	d,(hl)
   07D1 21 01 00           2326 	ld	hl,#0x0001
   07D4 19                 2327 	add	hl,de
   07D5 7D                 2328 	ld	a,l
   07D6 54                 2329 	ld	d,h
   07D7 F8 06              2330 	lda	hl,6(sp)
                           2331 ;	genPointerGet
                           2332 ;	AOP_STK for _food_logic_sloc0_1_0
                           2333 ;	AOP_STK for _food_logic_sloc1_1_0
   07D9 22                 2334 	ld	(hl+),a
   07DA 72                 2335 	ld	(hl),d
   07DB 5F                 2336 	ld	e,a
   07DC 1A                 2337 	ld	a,(de)
   07DD 2B                 2338 	dec	hl
   07DE 2B                 2339 	dec	hl
                           2340 ;	genCmpLt
                           2341 ;	AOP_STK for _food_logic_sloc1_1_0
   07DF 77                 2342 	ld      (hl),a
                           2343 ; Removed redundent load
   07E0 FE 8C              2344 	cp	#0x8C
   07E2 D2 11 08           2345 	jp	nc,00111$
                           2346 ;	src/food_spirit.c 117
                           2347 ;	genPlus
                           2348 ;	AOP_STK for _food_logic_f_2_3
                           2349 ;	AOP_STK for _food_logic_sloc3_1_0
                           2350 ;	genPlusIncr
                           2351 ;	Can't optimise plus by inc, falling back to the normal way
   07E5 F8 08              2352 	lda	hl,8(sp)
   07E7 5E                 2353 	ld	e,(hl)
   07E8 23                 2354 	inc	hl
   07E9 56                 2355 	ld	d,(hl)
   07EA 21 04 00           2356 	ld	hl,#0x0004
   07ED 19                 2357 	add	hl,de
   07EE 7D                 2358 	ld	a,l
   07EF 54                 2359 	ld	d,h
   07F0 F8 01              2360 	lda	hl,1(sp)
                           2361 ;	genPointerGet
                           2362 ;	AOP_STK for _food_logic_sloc3_1_0
                           2363 ;	AOP_STK for _food_logic_sloc4_1_0
   07F2 22                 2364 	ld	(hl+),a
   07F3 72                 2365 	ld	(hl),d
   07F4 5F                 2366 	ld	e,a
   07F5 1A                 2367 	ld	a,(de)
   07F6 2B                 2368 	dec	hl
   07F7 2B                 2369 	dec	hl
   07F8 77                 2370 	ld	(hl),a
                           2371 ;	genPlus
                           2372 ;	AOP_STK for _food_logic_sloc1_1_0
                           2373 ;	AOP_STK for _food_logic_sloc4_1_0
                           2374 ;	Can't optimise plus by inc, falling back to the normal way
   07F9 F8 05              2375 	lda	hl,5(sp)
   07FB 7E                 2376 	ld	a,(hl)
   07FC F8 00              2377 	lda	hl,0(sp)
   07FE 86                 2378 	add	a,(hl)
                           2379 ;	genAssign (pointer)
                           2380 ;	AOP_STK for _food_logic_sloc0_1_0
   07FF F8 06              2381 	lda	hl,6(sp)
   0801 5E                 2382 	ld	e,(hl)
   0802 23                 2383 	inc	hl
   0803 56                 2384 	ld	d,(hl)
   0804 12                 2385 	ld	(de),a
                           2386 ;	src/food_spirit.c 118
                           2387 ;	genMinus
                           2388 ;	AOP_STK for _food_logic_sloc2_1_0
                           2389 ;	AOP_STK for _food_logic_sloc4_1_0
                           2390 ;	AOP_STK for _food_logic_sloc3_1_0
   0805 F8 03              2391 	lda	hl,3(sp)
   0807 7E                 2392 	ld	a,(hl)
   0808 F8 00              2393 	lda	hl,0(sp)
   080A 96                 2394 	sub	a,(hl)
   080B 23                 2395 	inc	hl
                           2396 ;	genAssign (pointer)
                           2397 ;	AOP_STK for _food_logic_sloc3_1_0
   080C 77                 2398 	ld      (hl),a
                           2399 ; Removed redundent load
   080D 02                 2400 	ld	(bc),a
                           2401 ;	genGoto
   080E C3 6C 0A           2402 	jp	00142$
                           2403 ;	genLabel
   0811                    2404 00111$:
                           2405 ;	src/food_spirit.c 120
                           2406 ;	genIpush
                           2407 ; _saveRegsForCall: sendSetSize: 0 deInUse: 0 bcInUse: 1 deSending: 0
   0811 C5                 2408 	push	bc
   0812 21 06 00           2409 	ld	hl,#0x0006
   0815 E5                 2410 	push	hl
                           2411 ;	genIpush
   0816 21 04 00           2412 	ld	hl,#0x0004
   0819 E5                 2413 	push	hl
                           2414 ;	genIpush
   081A 21 05 00           2415 	ld	hl,#0x0005
   081D E5                 2416 	push	hl
                           2417 ;	genIpush
                           2418 ;	AOP_STK for _food_logic_f_2_3
   081E F8 10              2419 	lda	hl,16(sp)
   0820 2A                 2420 	ld	a,(hl+)
   0821 66                 2421 	ld	h,(hl)
   0822 6F                 2422 	ld	l,a
   0823 E5                 2423 	push	hl
                           2424 ;	genCall
   0824 CD C9 04           2425 	call	_bounce_food
   0827 E8 08              2426 	lda	sp,8(sp)
   0829 C1                 2427 	pop	bc
                           2428 ;	src/food_spirit.c 123
                           2429 ;	genGoto
   082A C3 6C 0A           2430 	jp	00142$
                           2431 ;	src/food_spirit.c 130
                           2432 ;	genLabel
   082D                    2433 00118$:
                           2434 ;	src/food_spirit.c 126
                           2435 ;	genPlus
                           2436 ;	AOP_STK for _food_logic_f_2_3
                           2437 ;	AOP_STK for _food_logic_sloc3_1_0
                           2438 ;	genPlusIncr
                           2439 ;	Can't optimise plus by inc, falling back to the normal way
   082D F8 08              2440 	lda	hl,8(sp)
   082F 5E                 2441 	ld	e,(hl)
   0830 23                 2442 	inc	hl
   0831 56                 2443 	ld	d,(hl)
   0832 21 01 00           2444 	ld	hl,#0x0001
   0835 19                 2445 	add	hl,de
   0836 7D                 2446 	ld	a,l
   0837 54                 2447 	ld	d,h
   0838 F8 01              2448 	lda	hl,1(sp)
                           2449 ;	genPointerGet
                           2450 ;	AOP_STK for _food_logic_sloc3_1_0
                           2451 ;	AOP_STK for _food_logic_sloc4_1_0
   083A 22                 2452 	ld	(hl+),a
   083B 72                 2453 	ld	(hl),d
   083C 5F                 2454 	ld	e,a
   083D 1A                 2455 	ld	a,(de)
   083E 2B                 2456 	dec	hl
   083F 2B                 2457 	dec	hl
                           2458 ;	genCmpLt
                           2459 ;	AOP_STK for _food_logic_sloc4_1_0
   0840 77                 2460 	ld      (hl),a
                           2461 ; Removed redundent load
   0841 FE 8C              2462 	cp	#0x8C
   0843 D2 68 08           2463 	jp	nc,00116$
                           2464 ;	src/food_spirit.c 127
                           2465 ;	genPlus
                           2466 ;	AOP_STK for _food_logic_f_2_3
                           2467 ;	AOP_STK for _food_logic_sloc2_1_0
                           2468 ;	genPlusIncr
                           2469 ;	Can't optimise plus by inc, falling back to the normal way
   0846 F8 08              2470 	lda	hl,8(sp)
   0848 5E                 2471 	ld	e,(hl)
   0849 23                 2472 	inc	hl
   084A 56                 2473 	ld	d,(hl)
   084B 21 04 00           2474 	ld	hl,#0x0004
   084E 19                 2475 	add	hl,de
   084F 7D                 2476 	ld	a,l
   0850 54                 2477 	ld	d,h
   0851 F8 03              2478 	lda	hl,3(sp)
                           2479 ;	genPointerGet
                           2480 ;	AOP_STK for _food_logic_sloc2_1_0
                           2481 ;	AOP_STK for _food_logic_sloc1_1_0
   0853 22                 2482 	ld	(hl+),a
   0854 72                 2483 	ld	(hl),d
   0855 5F                 2484 	ld	e,a
   0856 1A                 2485 	ld	a,(de)
   0857 23                 2486 	inc	hl
   0858 77                 2487 	ld	(hl),a
                           2488 ;	genPlus
                           2489 ;	AOP_STK for _food_logic_sloc4_1_0
                           2490 ;	AOP_STK for _food_logic_sloc1_1_0
                           2491 ;	Can't optimise plus by inc, falling back to the normal way
   0859 F8 00              2492 	lda	hl,0(sp)
   085B 7E                 2493 	ld	a,(hl)
   085C F8 05              2494 	lda	hl,5(sp)
   085E 86                 2495 	add	a,(hl)
                           2496 ;	genAssign (pointer)
                           2497 ;	AOP_STK for _food_logic_sloc3_1_0
   085F F8 01              2498 	lda	hl,1(sp)
   0861 5E                 2499 	ld	e,(hl)
   0862 23                 2500 	inc	hl
   0863 56                 2501 	ld	d,(hl)
   0864 12                 2502 	ld	(de),a
                           2503 ;	genGoto
   0865 C3 6C 0A           2504 	jp	00142$
                           2505 ;	genLabel
   0868                    2506 00116$:
                           2507 ;	src/food_spirit.c 129
                           2508 ;	genIpush
                           2509 ; _saveRegsForCall: sendSetSize: 0 deInUse: 0 bcInUse: 1 deSending: 0
   0868 C5                 2510 	push	bc
   0869 21 07 00           2511 	ld	hl,#0x0007
   086C E5                 2512 	push	hl
                           2513 ;	genIpush
   086D 21 05 00           2514 	ld	hl,#0x0005
   0870 E5                 2515 	push	hl
                           2516 ;	genIpush
   0871 21 06 00           2517 	ld	hl,#0x0006
   0874 E5                 2518 	push	hl
                           2519 ;	genIpush
                           2520 ;	AOP_STK for _food_logic_f_2_3
   0875 F8 10              2521 	lda	hl,16(sp)
   0877 2A                 2522 	ld	a,(hl+)
   0878 66                 2523 	ld	h,(hl)
   0879 6F                 2524 	ld	l,a
   087A E5                 2525 	push	hl
                           2526 ;	genCall
   087B CD C9 04           2527 	call	_bounce_food
   087E E8 08              2528 	lda	sp,8(sp)
   0880 C1                 2529 	pop	bc
                           2530 ;	src/food_spirit.c 132
                           2531 ;	genGoto
   0881 C3 6C 0A           2532 	jp	00142$
                           2533 ;	src/food_spirit.c 140
                           2534 ;	genLabel
   0884                    2535 00123$:
                           2536 ;	src/food_spirit.c 135
                           2537 ;	genPointerGet
                           2538 ;	AOP_STK for _food_logic_sloc4_1_0
   0884 0A                 2539 	ld	a,(bc)
   0885 F8 00              2540 	lda	hl,0(sp)
                           2541 ;	genMinus
                           2542 ;	AOP_STK for _food_logic_sloc4_1_0
                           2543 ;	AOP_STK for _food_logic_sloc3_1_0
   0887 77                 2544 	ld      (hl),a
                           2545 ; Removed redundent load
   0888 C6 F8              2546 	add	a,#0xF8
   088A 23                 2547 	inc	hl
                           2548 ;	genCmpLt
                           2549 ;	AOP_STK for _food_logic_sloc3_1_0
   088B 77                 2550 	ld      (hl),a
                           2551 ; Removed redundent load
   088C FE 78              2552 	cp	#0x78
   088E D2 D1 08           2553 	jp	nc,00120$
                           2554 ;	genPlus
                           2555 ;	AOP_STK for _food_logic_f_2_3
                           2556 ;	AOP_STK for _food_logic_sloc3_1_0
                           2557 ;	genPlusIncr
                           2558 ;	Can't optimise plus by inc, falling back to the normal way
   0891 F8 08              2559 	lda	hl,8(sp)
   0893 5E                 2560 	ld	e,(hl)
   0894 23                 2561 	inc	hl
   0895 56                 2562 	ld	d,(hl)
   0896 21 01 00           2563 	ld	hl,#0x0001
   0899 19                 2564 	add	hl,de
   089A 7D                 2565 	ld	a,l
   089B 54                 2566 	ld	d,h
   089C F8 01              2567 	lda	hl,1(sp)
                           2568 ;	genPointerGet
                           2569 ;	AOP_STK for _food_logic_sloc3_1_0
                           2570 ;	AOP_STK for _food_logic_sloc2_1_0
   089E 22                 2571 	ld	(hl+),a
   089F 72                 2572 	ld	(hl),d
   08A0 5F                 2573 	ld	e,a
   08A1 1A                 2574 	ld	a,(de)
   08A2 23                 2575 	inc	hl
                           2576 ;	genCmpLt
                           2577 ;	AOP_STK for _food_logic_sloc2_1_0
   08A3 77                 2578 	ld      (hl),a
                           2579 ; Removed redundent load
   08A4 FE 8C              2580 	cp	#0x8C
   08A6 D2 D1 08           2581 	jp	nc,00120$
                           2582 ;	src/food_spirit.c 136
                           2583 ;	genPlus
                           2584 ;	AOP_STK for _food_logic_f_2_3
                           2585 ;	AOP_STK for _food_logic_sloc0_1_0
                           2586 ;	genPlusIncr
                           2587 ;	Can't optimise plus by inc, falling back to the normal way
   08A9 F8 08              2588 	lda	hl,8(sp)
   08AB 5E                 2589 	ld	e,(hl)
   08AC 23                 2590 	inc	hl
   08AD 56                 2591 	ld	d,(hl)
   08AE 21 04 00           2592 	ld	hl,#0x0004
   08B1 19                 2593 	add	hl,de
   08B2 7D                 2594 	ld	a,l
   08B3 54                 2595 	ld	d,h
   08B4 F8 06              2596 	lda	hl,6(sp)
                           2597 ;	genPointerGet
                           2598 ;	AOP_STK for _food_logic_sloc0_1_0
                           2599 ;	AOP_STK for _food_logic_sloc1_1_0
   08B6 22                 2600 	ld	(hl+),a
   08B7 72                 2601 	ld	(hl),d
   08B8 5F                 2602 	ld	e,a
   08B9 1A                 2603 	ld	a,(de)
   08BA 2B                 2604 	dec	hl
   08BB 2B                 2605 	dec	hl
                           2606 ;	genPlus
                           2607 ;	AOP_STK for _food_logic_sloc2_1_0
                           2608 ;	AOP_STK for _food_logic_sloc1_1_0
                           2609 ;	Can't optimise plus by inc, falling back to the normal way
   08BC 32                 2610 	ld      (hl-),a
   08BD 2B                 2611 	dec	hl
   08BE 2A                 2612 	ld	a,(hl+)
   08BF 23                 2613 	inc	hl
   08C0 86                 2614 	add	a,(hl)
                           2615 ;	genAssign (pointer)
                           2616 ;	AOP_STK for _food_logic_sloc3_1_0
   08C1 F8 01              2617 	lda	hl,1(sp)
   08C3 5E                 2618 	ld	e,(hl)
   08C4 23                 2619 	inc	hl
   08C5 56                 2620 	ld	d,(hl)
   08C6 12                 2621 	ld	(de),a
                           2622 ;	src/food_spirit.c 137
                           2623 ;	genPlus
                           2624 ;	AOP_STK for _food_logic_sloc4_1_0
                           2625 ;	AOP_STK for _food_logic_sloc1_1_0
                           2626 ;	Can't optimise plus by inc, falling back to the normal way
   08C7 2B                 2627 	dec	hl
   08C8 2B                 2628 	dec	hl
   08C9 7E                 2629 	ld	a,(hl)
   08CA F8 05              2630 	lda	hl,5(sp)
   08CC 86                 2631 	add	a,(hl)
                           2632 ;	genAssign (pointer)
   08CD 02                 2633 	ld	(bc),a
                           2634 ;	genGoto
   08CE C3 6C 0A           2635 	jp	00142$
                           2636 ;	genLabel
   08D1                    2637 00120$:
                           2638 ;	src/food_spirit.c 139
                           2639 ;	genIpush
                           2640 ; _saveRegsForCall: sendSetSize: 0 deInUse: 0 bcInUse: 1 deSending: 0
   08D1 C5                 2641 	push	bc
   08D2 21 06 00           2642 	ld	hl,#0x0006
   08D5 E5                 2643 	push	hl
                           2644 ;	genIpush
   08D6 21 00 00           2645 	ld	hl,#0x0000
   08D9 E5                 2646 	push	hl
                           2647 ;	genIpush
   08DA 21 07 00           2648 	ld	hl,#0x0007
   08DD E5                 2649 	push	hl
                           2650 ;	genIpush
                           2651 ;	AOP_STK for _food_logic_f_2_3
   08DE F8 10              2652 	lda	hl,16(sp)
   08E0 2A                 2653 	ld	a,(hl+)
   08E1 66                 2654 	ld	h,(hl)
   08E2 6F                 2655 	ld	l,a
   08E3 E5                 2656 	push	hl
                           2657 ;	genCall
   08E4 CD C9 04           2658 	call	_bounce_food
   08E7 E8 08              2659 	lda	sp,8(sp)
   08E9 C1                 2660 	pop	bc
                           2661 ;	src/food_spirit.c 142
                           2662 ;	genGoto
   08EA C3 6C 0A           2663 	jp	00142$
                           2664 ;	src/food_spirit.c 149
                           2665 ;	genLabel
   08ED                    2666 00127$:
                           2667 ;	src/food_spirit.c 145
                           2668 ;	genPointerGet
                           2669 ;	AOP_STK for _food_logic_sloc4_1_0
   08ED 0A                 2670 	ld	a,(bc)
   08EE F8 00              2671 	lda	hl,0(sp)
                           2672 ;	genMinus
                           2673 ;	AOP_STK for _food_logic_sloc4_1_0
                           2674 ;	AOP_STK for _food_logic_sloc3_1_0
   08F0 77                 2675 	ld      (hl),a
                           2676 ; Removed redundent load
   08F1 C6 F8              2677 	add	a,#0xF8
   08F3 23                 2678 	inc	hl
                           2679 ;	genCmpLt
                           2680 ;	AOP_STK for _food_logic_sloc3_1_0
   08F4 77                 2681 	ld      (hl),a
                           2682 ; Removed redundent load
   08F5 FE 78              2683 	cp	#0x78
   08F7 D2 17 09           2684 	jp	nc,00125$
                           2685 ;	src/food_spirit.c 146
                           2686 ;	genPlus
                           2687 ;	AOP_STK for _food_logic_f_2_3
                           2688 ;	AOP_STK for _food_logic_sloc3_1_0
                           2689 ;	genPlusIncr
                           2690 ;	Can't optimise plus by inc, falling back to the normal way
   08FA F8 08              2691 	lda	hl,8(sp)
   08FC 5E                 2692 	ld	e,(hl)
   08FD 23                 2693 	inc	hl
   08FE 56                 2694 	ld	d,(hl)
   08FF 21 04 00           2695 	ld	hl,#0x0004
   0902 19                 2696 	add	hl,de
   0903 7D                 2697 	ld	a,l
   0904 54                 2698 	ld	d,h
   0905 F8 01              2699 	lda	hl,1(sp)
                           2700 ;	genPointerGet
                           2701 ;	AOP_STK for _food_logic_sloc3_1_0
                           2702 ;	AOP_STK for _food_logic_sloc2_1_0
   0907 22                 2703 	ld	(hl+),a
   0908 72                 2704 	ld	(hl),d
   0909 5F                 2705 	ld	e,a
   090A 1A                 2706 	ld	a,(de)
   090B 23                 2707 	inc	hl
   090C 77                 2708 	ld	(hl),a
                           2709 ;	genPlus
                           2710 ;	AOP_STK for _food_logic_sloc4_1_0
                           2711 ;	AOP_STK for _food_logic_sloc2_1_0
                           2712 ;	Can't optimise plus by inc, falling back to the normal way
   090D F8 00              2713 	lda	hl,0(sp)
   090F 7E                 2714 	ld	a,(hl)
   0910 F8 03              2715 	lda	hl,3(sp)
   0912 86                 2716 	add	a,(hl)
                           2717 ;	genAssign (pointer)
   0913 02                 2718 	ld	(bc),a
                           2719 ;	genGoto
   0914 C3 6C 0A           2720 	jp	00142$
                           2721 ;	genLabel
   0917                    2722 00125$:
                           2723 ;	src/food_spirit.c 148
                           2724 ;	genIpush
                           2725 ; _saveRegsForCall: sendSetSize: 0 deInUse: 0 bcInUse: 1 deSending: 0
   0917 C5                 2726 	push	bc
   0918 21 01 00           2727 	ld	hl,#0x0001
   091B E5                 2728 	push	hl
                           2729 ;	genIpush
   091C 21 07 00           2730 	ld	hl,#0x0007
   091F E5                 2731 	push	hl
                           2732 ;	genIpush
   0920 21 00 00           2733 	ld	hl,#0x0000
   0923 E5                 2734 	push	hl
                           2735 ;	genIpush
                           2736 ;	AOP_STK for _food_logic_f_2_3
   0924 F8 10              2737 	lda	hl,16(sp)
   0926 2A                 2738 	ld	a,(hl+)
   0927 66                 2739 	ld	h,(hl)
   0928 6F                 2740 	ld	l,a
   0929 E5                 2741 	push	hl
                           2742 ;	genCall
   092A CD C9 04           2743 	call	_bounce_food
   092D E8 08              2744 	lda	sp,8(sp)
   092F C1                 2745 	pop	bc
                           2746 ;	src/food_spirit.c 151
                           2747 ;	genGoto
   0930 C3 6C 0A           2748 	jp	00142$
                           2749 ;	src/food_spirit.c 159
                           2750 ;	genLabel
   0933                    2751 00132$:
                           2752 ;	src/food_spirit.c 154
                           2753 ;	genPointerGet
                           2754 ;	AOP_STK for _food_logic_sloc4_1_0
   0933 0A                 2755 	ld	a,(bc)
   0934 F8 00              2756 	lda	hl,0(sp)
                           2757 ;	genMinus
                           2758 ;	AOP_STK for _food_logic_sloc4_1_0
                           2759 ;	AOP_STK for _food_logic_sloc3_1_0
   0936 77                 2760 	ld      (hl),a
                           2761 ; Removed redundent load
   0937 C6 F8              2762 	add	a,#0xF8
   0939 23                 2763 	inc	hl
                           2764 ;	genCmpLt
                           2765 ;	AOP_STK for _food_logic_sloc3_1_0
   093A 77                 2766 	ld      (hl),a
                           2767 ; Removed redundent load
   093B FE 78              2768 	cp	#0x78
   093D D2 86 09           2769 	jp	nc,00129$
                           2770 ;	genPlus
                           2771 ;	AOP_STK for _food_logic_f_2_3
                           2772 ;	AOP_STK for _food_logic_sloc3_1_0
                           2773 ;	genPlusIncr
                           2774 ;	Can't optimise plus by inc, falling back to the normal way
   0940 F8 08              2775 	lda	hl,8(sp)
   0942 5E                 2776 	ld	e,(hl)
   0943 23                 2777 	inc	hl
   0944 56                 2778 	ld	d,(hl)
   0945 21 01 00           2779 	ld	hl,#0x0001
   0948 19                 2780 	add	hl,de
   0949 7D                 2781 	ld	a,l
   094A 54                 2782 	ld	d,h
   094B F8 01              2783 	lda	hl,1(sp)
                           2784 ;	genPointerGet
                           2785 ;	AOP_STK for _food_logic_sloc3_1_0
                           2786 ;	AOP_STK for _food_logic_sloc2_1_0
   094D 22                 2787 	ld	(hl+),a
   094E 72                 2788 	ld	(hl),d
   094F 5F                 2789 	ld	e,a
   0950 1A                 2790 	ld	a,(de)
   0951 23                 2791 	inc	hl
   0952 77                 2792 	ld	(hl),a
                           2793 ;	genCmpGt
                           2794 ;	AOP_STK for _food_logic_sloc2_1_0
   0953 3E 14              2795 	ld	a,#0x14
   0955 96                 2796 	sub	a,(hl)
   0956 D2 86 09           2797 	jp	nc,00129$
                           2798 ;	src/food_spirit.c 155
                           2799 ;	genPlus
                           2800 ;	AOP_STK for _food_logic_f_2_3
                           2801 ;	AOP_STK for _food_logic_sloc0_1_0
                           2802 ;	genPlusIncr
                           2803 ;	Can't optimise plus by inc, falling back to the normal way
   0959 F8 08              2804 	lda	hl,8(sp)
   095B 5E                 2805 	ld	e,(hl)
   095C 23                 2806 	inc	hl
   095D 56                 2807 	ld	d,(hl)
   095E 21 04 00           2808 	ld	hl,#0x0004
   0961 19                 2809 	add	hl,de
   0962 7D                 2810 	ld	a,l
   0963 54                 2811 	ld	d,h
   0964 F8 06              2812 	lda	hl,6(sp)
                           2813 ;	genPointerGet
                           2814 ;	AOP_STK for _food_logic_sloc0_1_0
                           2815 ;	AOP_STK for _food_logic_sloc1_1_0
   0966 22                 2816 	ld	(hl+),a
   0967 72                 2817 	ld	(hl),d
   0968 5F                 2818 	ld	e,a
   0969 1A                 2819 	ld	a,(de)
   096A 2B                 2820 	dec	hl
   096B 2B                 2821 	dec	hl
                           2822 ;	genMinus
                           2823 ;	AOP_STK for _food_logic_sloc2_1_0
                           2824 ;	AOP_STK for _food_logic_sloc1_1_0
                           2825 ;	AOP_STK for _food_logic_sloc0_1_0
   096C 32                 2826 	ld      (hl-),a
   096D 2B                 2827 	dec	hl
   096E 2A                 2828 	ld	a,(hl+)
   096F 23                 2829 	inc	hl
   0970 96                 2830 	sub	a,(hl)
   0971 23                 2831 	inc	hl
   0972 77                 2832 	ld	(hl),a
                           2833 ;	genAssign (pointer)
                           2834 ;	AOP_STK for _food_logic_sloc3_1_0
                           2835 ;	AOP_STK for _food_logic_sloc0_1_0
   0973 F8 01              2836 	lda	hl,1(sp)
   0975 5E                 2837 	ld	e,(hl)
   0976 23                 2838 	inc	hl
   0977 56                 2839 	ld	d,(hl)
   0978 F8 06              2840 	lda	hl,6(sp)
   097A 7E                 2841 	ld	a,(hl)
   097B 12                 2842 	ld	(de),a
                           2843 ;	src/food_spirit.c 156
                           2844 ;	genPlus
                           2845 ;	AOP_STK for _food_logic_sloc4_1_0
                           2846 ;	AOP_STK for _food_logic_sloc1_1_0
                           2847 ;	Can't optimise plus by inc, falling back to the normal way
   097C F8 00              2848 	lda	hl,0(sp)
   097E 7E                 2849 	ld	a,(hl)
   097F F8 05              2850 	lda	hl,5(sp)
   0981 86                 2851 	add	a,(hl)
                           2852 ;	genAssign (pointer)
   0982 02                 2853 	ld	(bc),a
                           2854 ;	genGoto
   0983 C3 6C 0A           2855 	jp	00142$
                           2856 ;	genLabel
   0986                    2857 00129$:
                           2858 ;	src/food_spirit.c 158
                           2859 ;	genIpush
                           2860 ; _saveRegsForCall: sendSetSize: 0 deInUse: 0 bcInUse: 1 deSending: 0
   0986 C5                 2861 	push	bc
   0987 21 02 00           2862 	ld	hl,#0x0002
   098A E5                 2863 	push	hl
                           2864 ;	genIpush
   098B 21 00 00           2865 	ld	hl,#0x0000
   098E E5                 2866 	push	hl
                           2867 ;	genIpush
   098F 21 01 00           2868 	ld	hl,#0x0001
   0992 E5                 2869 	push	hl
                           2870 ;	genIpush
                           2871 ;	AOP_STK for _food_logic_f_2_3
   0993 F8 10              2872 	lda	hl,16(sp)
   0995 2A                 2873 	ld	a,(hl+)
   0996 66                 2874 	ld	h,(hl)
   0997 6F                 2875 	ld	l,a
   0998 E5                 2876 	push	hl
                           2877 ;	genCall
   0999 CD C9 04           2878 	call	_bounce_food
   099C E8 08              2879 	lda	sp,8(sp)
   099E C1                 2880 	pop	bc
                           2881 ;	src/food_spirit.c 161
                           2882 ;	genGoto
   099F C3 6C 0A           2883 	jp	00142$
                           2884 ;	src/food_spirit.c 168
                           2885 ;	genLabel
   09A2                    2886 00136$:
                           2887 ;	src/food_spirit.c 164
                           2888 ;	genPlus
                           2889 ;	AOP_STK for _food_logic_f_2_3
                           2890 ;	AOP_STK for _food_logic_sloc3_1_0
                           2891 ;	genPlusIncr
                           2892 ;	Can't optimise plus by inc, falling back to the normal way
   09A2 F8 08              2893 	lda	hl,8(sp)
   09A4 5E                 2894 	ld	e,(hl)
   09A5 23                 2895 	inc	hl
   09A6 56                 2896 	ld	d,(hl)
   09A7 21 01 00           2897 	ld	hl,#0x0001
   09AA 19                 2898 	add	hl,de
   09AB 7D                 2899 	ld	a,l
   09AC 54                 2900 	ld	d,h
   09AD F8 01              2901 	lda	hl,1(sp)
                           2902 ;	genPointerGet
                           2903 ;	AOP_STK for _food_logic_sloc3_1_0
                           2904 ;	AOP_STK for _food_logic_sloc4_1_0
   09AF 22                 2905 	ld	(hl+),a
   09B0 72                 2906 	ld	(hl),d
   09B1 5F                 2907 	ld	e,a
   09B2 1A                 2908 	ld	a,(de)
   09B3 2B                 2909 	dec	hl
   09B4 2B                 2910 	dec	hl
   09B5 77                 2911 	ld	(hl),a
                           2912 ;	genCmpGt
                           2913 ;	AOP_STK for _food_logic_sloc4_1_0
   09B6 3E 14              2914 	ld	a,#0x14
   09B8 96                 2915 	sub	a,(hl)
   09B9 D2 E2 09           2916 	jp	nc,00134$
                           2917 ;	src/food_spirit.c 165
                           2918 ;	genPlus
                           2919 ;	AOP_STK for _food_logic_f_2_3
                           2920 ;	AOP_STK for _food_logic_sloc2_1_0
                           2921 ;	genPlusIncr
                           2922 ;	Can't optimise plus by inc, falling back to the normal way
   09BC F8 08              2923 	lda	hl,8(sp)
   09BE 5E                 2924 	ld	e,(hl)
   09BF 23                 2925 	inc	hl
   09C0 56                 2926 	ld	d,(hl)
   09C1 21 04 00           2927 	ld	hl,#0x0004
   09C4 19                 2928 	add	hl,de
   09C5 7D                 2929 	ld	a,l
   09C6 54                 2930 	ld	d,h
   09C7 F8 03              2931 	lda	hl,3(sp)
                           2932 ;	genPointerGet
                           2933 ;	AOP_STK for _food_logic_sloc2_1_0
                           2934 ;	AOP_STK for _food_logic_sloc1_1_0
   09C9 22                 2935 	ld	(hl+),a
   09CA 72                 2936 	ld	(hl),d
   09CB 5F                 2937 	ld	e,a
   09CC 1A                 2938 	ld	a,(de)
   09CD 23                 2939 	inc	hl
   09CE 77                 2940 	ld	(hl),a
                           2941 ;	genMinus
                           2942 ;	AOP_STK for _food_logic_sloc4_1_0
                           2943 ;	AOP_STK for _food_logic_sloc1_1_0
                           2944 ;	AOP_STK for _food_logic_sloc2_1_0
   09CF F8 00              2945 	lda	hl,0(sp)
   09D1 7E                 2946 	ld	a,(hl)
   09D2 F8 05              2947 	lda	hl,5(sp)
   09D4 96                 2948 	sub	a,(hl)
   09D5 2B                 2949 	dec	hl
   09D6 2B                 2950 	dec	hl
                           2951 ;	genAssign (pointer)
                           2952 ;	AOP_STK for _food_logic_sloc3_1_0
                           2953 ;	AOP_STK for _food_logic_sloc2_1_0
   09D7 32                 2954 	ld      (hl-),a
   09D8 2B                 2955 	dec	hl
   09D9 5E                 2956 	ld	e,(hl)
   09DA 23                 2957 	inc	hl
   09DB 56                 2958 	ld	d,(hl)
   09DC 23                 2959 	inc	hl
   09DD 7E                 2960 	ld	a,(hl)
   09DE 12                 2961 	ld	(de),a
                           2962 ;	genGoto
   09DF C3 6C 0A           2963 	jp	00142$
                           2964 ;	genLabel
   09E2                    2965 00134$:
                           2966 ;	src/food_spirit.c 167
                           2967 ;	genIpush
                           2968 ; _saveRegsForCall: sendSetSize: 0 deInUse: 0 bcInUse: 1 deSending: 0
   09E2 C5                 2969 	push	bc
   09E3 21 01 00           2970 	ld	hl,#0x0001
   09E6 E5                 2971 	push	hl
                           2972 ;	genIpush
   09E7 21 03 00           2973 	ld	hl,#0x0003
   09EA E5                 2974 	push	hl
                           2975 ;	genIpush
   09EB 21 02 00           2976 	ld	hl,#0x0002
   09EE E5                 2977 	push	hl
                           2978 ;	genIpush
                           2979 ;	AOP_STK for _food_logic_f_2_3
   09EF F8 10              2980 	lda	hl,16(sp)
   09F1 2A                 2981 	ld	a,(hl+)
   09F2 66                 2982 	ld	h,(hl)
   09F3 6F                 2983 	ld	l,a
   09F4 E5                 2984 	push	hl
                           2985 ;	genCall
   09F5 CD C9 04           2986 	call	_bounce_food
   09F8 E8 08              2987 	lda	sp,8(sp)
   09FA C1                 2988 	pop	bc
                           2989 ;	src/food_spirit.c 170
                           2990 ;	genGoto
   09FB C3 6C 0A           2991 	jp	00142$
                           2992 ;	src/food_spirit.c 178
                           2993 ;	genLabel
   09FE                    2994 00141$:
                           2995 ;	src/food_spirit.c 173
                           2996 ;	genPointerGet
                           2997 ;	AOP_STK for _food_logic_sloc4_1_0
   09FE 0A                 2998 	ld	a,(bc)
   09FF F8 00              2999 	lda	hl,0(sp)
                           3000 ;	genMinus
                           3001 ;	AOP_STK for _food_logic_sloc4_1_0
                           3002 ;	AOP_STK for _food_logic_sloc3_1_0
   0A01 77                 3003 	ld      (hl),a
                           3004 ; Removed redundent load
   0A02 C6 F8              3005 	add	a,#0xF8
   0A04 23                 3006 	inc	hl
   0A05 77                 3007 	ld	(hl),a
                           3008 ;	genCmpGt
                           3009 ;	AOP_STK for _food_logic_sloc3_1_0
   0A06 3E 24              3010 	ld	a,#0x24
   0A08 96                 3011 	sub	a,(hl)
   0A09 D2 55 0A           3012 	jp	nc,00138$
                           3013 ;	genPlus
                           3014 ;	AOP_STK for _food_logic_f_2_3
                           3015 ;	AOP_STK for _food_logic_sloc3_1_0
                           3016 ;	genPlusIncr
                           3017 ;	Can't optimise plus by inc, falling back to the normal way
   0A0C F8 08              3018 	lda	hl,8(sp)
   0A0E 5E                 3019 	ld	e,(hl)
   0A0F 23                 3020 	inc	hl
   0A10 56                 3021 	ld	d,(hl)
   0A11 21 01 00           3022 	ld	hl,#0x0001
   0A14 19                 3023 	add	hl,de
   0A15 7D                 3024 	ld	a,l
   0A16 54                 3025 	ld	d,h
   0A17 F8 01              3026 	lda	hl,1(sp)
                           3027 ;	genPointerGet
                           3028 ;	AOP_STK for _food_logic_sloc3_1_0
                           3029 ;	AOP_STK for _food_logic_sloc2_1_0
   0A19 22                 3030 	ld	(hl+),a
   0A1A 72                 3031 	ld	(hl),d
   0A1B 5F                 3032 	ld	e,a
   0A1C 1A                 3033 	ld	a,(de)
   0A1D 23                 3034 	inc	hl
   0A1E 77                 3035 	ld	(hl),a
                           3036 ;	genCmpGt
                           3037 ;	AOP_STK for _food_logic_sloc2_1_0
   0A1F 3E 14              3038 	ld	a,#0x14
   0A21 96                 3039 	sub	a,(hl)
   0A22 D2 55 0A           3040 	jp	nc,00138$
                           3041 ;	src/food_spirit.c 174
                           3042 ;	genPlus
                           3043 ;	AOP_STK for _food_logic_f_2_3
                           3044 ;	AOP_STK for _food_logic_sloc0_1_0
                           3045 ;	genPlusIncr
                           3046 ;	Can't optimise plus by inc, falling back to the normal way
   0A25 F8 08              3047 	lda	hl,8(sp)
   0A27 5E                 3048 	ld	e,(hl)
   0A28 23                 3049 	inc	hl
   0A29 56                 3050 	ld	d,(hl)
   0A2A 21 04 00           3051 	ld	hl,#0x0004
   0A2D 19                 3052 	add	hl,de
   0A2E 7D                 3053 	ld	a,l
   0A2F 54                 3054 	ld	d,h
   0A30 F8 06              3055 	lda	hl,6(sp)
                           3056 ;	genPointerGet
                           3057 ;	AOP_STK for _food_logic_sloc0_1_0
                           3058 ;	AOP_STK for _food_logic_sloc1_1_0
   0A32 22                 3059 	ld	(hl+),a
   0A33 72                 3060 	ld	(hl),d
   0A34 5F                 3061 	ld	e,a
   0A35 1A                 3062 	ld	a,(de)
   0A36 2B                 3063 	dec	hl
   0A37 2B                 3064 	dec	hl
                           3065 ;	genMinus
                           3066 ;	AOP_STK for _food_logic_sloc2_1_0
                           3067 ;	AOP_STK for _food_logic_sloc1_1_0
                           3068 ;	AOP_STK for _food_logic_sloc0_1_0
   0A38 32                 3069 	ld      (hl-),a
   0A39 2B                 3070 	dec	hl
   0A3A 2A                 3071 	ld	a,(hl+)
   0A3B 23                 3072 	inc	hl
   0A3C 96                 3073 	sub	a,(hl)
   0A3D 23                 3074 	inc	hl
   0A3E 77                 3075 	ld	(hl),a
                           3076 ;	genAssign (pointer)
                           3077 ;	AOP_STK for _food_logic_sloc3_1_0
                           3078 ;	AOP_STK for _food_logic_sloc0_1_0
   0A3F F8 01              3079 	lda	hl,1(sp)
   0A41 5E                 3080 	ld	e,(hl)
   0A42 23                 3081 	inc	hl
   0A43 56                 3082 	ld	d,(hl)
   0A44 F8 06              3083 	lda	hl,6(sp)
   0A46 7E                 3084 	ld	a,(hl)
   0A47 12                 3085 	ld	(de),a
                           3086 ;	src/food_spirit.c 175
                           3087 ;	genMinus
                           3088 ;	AOP_STK for _food_logic_sloc4_1_0
                           3089 ;	AOP_STK for _food_logic_sloc1_1_0
                           3090 ;	AOP_STK for _food_logic_sloc3_1_0
   0A48 F8 00              3091 	lda	hl,0(sp)
   0A4A 7E                 3092 	ld	a,(hl)
   0A4B F8 05              3093 	lda	hl,5(sp)
   0A4D 96                 3094 	sub	a,(hl)
   0A4E F8 01              3095 	lda	hl,1(sp)
                           3096 ;	genAssign (pointer)
                           3097 ;	AOP_STK for _food_logic_sloc3_1_0
   0A50 77                 3098 	ld      (hl),a
                           3099 ; Removed redundent load
   0A51 02                 3100 	ld	(bc),a
                           3101 ;	genGoto
   0A52 C3 6C 0A           3102 	jp	00142$
                           3103 ;	genLabel
   0A55                    3104 00138$:
                           3105 ;	src/food_spirit.c 177
                           3106 ;	genIpush
                           3107 ; _saveRegsForCall: sendSetSize: 0 deInUse: 0 bcInUse: 0 deSending: 0
   0A55 21 02 00           3108 	ld	hl,#0x0002
   0A58 E5                 3109 	push	hl
                           3110 ;	genIpush
   0A59 21 04 00           3111 	ld	hl,#0x0004
   0A5C E5                 3112 	push	hl
                           3113 ;	genIpush
   0A5D 21 03 00           3114 	ld	hl,#0x0003
   0A60 E5                 3115 	push	hl
                           3116 ;	genIpush
                           3117 ;	AOP_STK for _food_logic_f_2_3
   0A61 F8 0E              3118 	lda	hl,14(sp)
   0A63 2A                 3119 	ld	a,(hl+)
   0A64 66                 3120 	ld	h,(hl)
   0A65 6F                 3121 	ld	l,a
   0A66 E5                 3122 	push	hl
                           3123 ;	genCall
   0A67 CD C9 04           3124 	call	_bounce_food
   0A6A E8 08              3125 	lda	sp,8(sp)
                           3126 ;	src/food_spirit.c 181
                           3127 ;	genLabel
   0A6C                    3128 00142$:
                           3129 ;	src/food_spirit.c 183
                           3130 ;	genIpush
                           3131 ; _saveRegsForCall: sendSetSize: 0 deInUse: 0 bcInUse: 0 deSending: 0
                           3132 ;	AOP_STK for _food_logic_f_2_3
   0A6C F8 08              3133 	lda	hl,8(sp)
   0A6E 2A                 3134 	ld	a,(hl+)
   0A6F 66                 3135 	ld	h,(hl)
   0A70 6F                 3136 	ld	l,a
   0A71 E5                 3137 	push	hl
                           3138 ;	genCall
   0A72 CD 33 05           3139 	call	_food_collision
   0A75 E8 02              3140 	lda	sp,2(sp)
                           3141 ;	genLabel
   0A77                    3142 00147$:
                           3143 ;	src/food_spirit.c 96
                           3144 ;	genPlus
                           3145 ;	AOP_STK for _food_logic_i_1_1
                           3146 ;	genPlusIncr
   0A77 F8 0A              3147 	lda	hl,10(sp)
   0A79 34                 3148 	inc	(hl)
                           3149 ;	genGoto
   0A7A C3 C8 06           3150 	jp	00145$
                           3151 ;	genLabel
   0A7D                    3152 00149$:
                           3153 ;	genEndFunction
   0A7D E8 0B              3154 	lda	sp,11(sp)
   0A7F C9                 3155 	ret
   0A80                    3156 ___food_logic_end:
                           3157 ;	src/food_spirit.c 188
                           3158 ;	genLabel
                           3159 ;	genFunction
                           3160 ;	---------------------------------
                           3161 ; Function player_jump_and_gravity
                           3162 ; ---------------------------------
   0A80                    3163 ___player_jump_and_gravity_start:
   0A80                    3164 _player_jump_and_gravity:
                           3165 	
                           3166 ;	src/food_spirit.c 189
                           3167 ;	genCmpGt
                           3168 ;	AOP_HL for _player_jump_frames
   0A80 3E 00              3169 	ld	a,#0x00
   0A82 21 04 00           3170 	ld	hl,#_player_jump_frames
   0A85 96                 3171 	sub	a,(hl)
   0A86 D2 8A 0A           3172 	jp	nc,00102$
                           3173 ;	src/food_spirit.c 190
                           3174 ;	genMinus
                           3175 ;	AOP_HL for _player_jump_frames
   0A89 35                 3176 	dec	(hl)
                           3177 ;	genLabel
   0A8A                    3178 00102$:
                           3179 ;	src/food_spirit.c 193
                           3180 ;	genCmpGt
                           3181 ;	AOP_HL for _player_jump_frames
   0A8A 3E 06              3182 	ld	a,#0x06
   0A8C 21 04 00           3183 	ld	hl,#_player_jump_frames
   0A8F 96                 3184 	sub	a,(hl)
   0A90 D2 A3 0A           3185 	jp	nc,00108$
                           3186 ;	src/food_spirit.c 194
                           3187 ;	genCmpGt
                           3188 ;	AOP_HL for _player_y
   0A93 3E 24              3189 	ld	a,#0x24
   0A95 21 01 00           3190 	ld	hl,#_player_y
   0A98 96                 3191 	sub	a,(hl)
   0A99 D2 AF 0A           3192 	jp	nc,00110$
                           3193 ;	src/food_spirit.c 195
                           3194 ;	genMinus
                           3195 ;	AOP_HL for _player_y
   0A9C 7E                 3196 	ld	a,(hl)
   0A9D C6 FD              3197 	add	a,#0xFD
   0A9F 77                 3198 	ld	(hl),a
                           3199 ;	genGoto
   0AA0 C3 AF 0A           3200 	jp	00110$
                           3201 ;	genLabel
   0AA3                    3202 00108$:
                           3203 ;	src/food_spirit.c 197
                           3204 ;	genCmpLt
                           3205 ;	AOP_HL for _player_y
   0AA3 21 01 00           3206 	ld	hl,#_player_y
   0AA6 7E                 3207 	ld	a,(hl)
   0AA7 FE 78              3208 	cp	#0x78
   0AA9 D2 AF 0A           3209 	jp	nc,00110$
                           3210 ;	src/food_spirit.c 198
                           3211 ;	genPlus
                           3212 ;	AOP_HL for _player_y
                           3213 ;	genPlusIncr
   0AAC 34                 3214 	inc	(hl)
   0AAD 34                 3215 	inc	(hl)
   0AAE 34                 3216 	inc	(hl)
                           3217 ;	genLabel
   0AAF                    3218 00110$:
                           3219 ;	genEndFunction
                           3220 	
   0AAF C9                 3221 	ret
   0AB0                    3222 ___player_jump_and_gravity_end:
                           3223 ;	src/food_spirit.c 202
                           3224 ;	genLabel
                           3225 ;	genFunction
                           3226 ;	---------------------------------
                           3227 ; Function player_idle_anim
                           3228 ; ---------------------------------
   0AB0                    3229 ___player_idle_anim_start:
   0AB0                    3230 _player_idle_anim:
                           3231 	
                           3232 ;	src/food_spirit.c 203
                           3233 ;	genCmpLt
                           3234 ;	AOP_HL for _player_idle_anim_frames
   0AB0 21 05 00           3235 	ld	hl,#_player_idle_anim_frames
   0AB3 7E                 3236 	ld	a,(hl)
   0AB4 D6 78              3237 	sub	a,#0x78
   0AB6 23                 3238 	inc	hl
   0AB7 7E                 3239 	ld	a,(hl)
   0AB8 DE 00              3240 	sbc	a,#0x00
   0ABA D2 C6 0A           3241 	jp	nc,00102$
                           3242 ;	src/food_spirit.c 204
                           3243 ;	genPlus
                           3244 ;	AOP_HL for _player_idle_anim_frames
                           3245 ;	genPlusIncr
   0ABD 2B                 3246 	dec	hl
   0ABE 34                 3247 	inc	(hl)
   0ABF 20 02              3248 	jr	nz,00127$
   0AC1 23                 3249 	inc	hl
   0AC2 34                 3250 	inc	(hl)
   0AC3                    3251 00127$:
                           3252 ;	genGoto
   0AC3 C3 CE 0A           3253 	jp	00103$
                           3254 ;	genLabel
   0AC6                    3255 00102$:
                           3256 ;	src/food_spirit.c 206
                           3257 ;	genAssign
                           3258 ;	AOP_HL for _player_idle_anim_frames
   0AC6 21 05 00           3259 	ld	hl,#_player_idle_anim_frames
   0AC9 36 00              3260 	ld	(hl),#0x00
   0ACB 23                 3261 	inc	hl
   0ACC 36 00              3262 	ld	(hl),#0x00
                           3263 ;	genLabel
   0ACE                    3264 00103$:
                           3265 ;	src/food_spirit.c 209
                           3266 ;	genCmpLt
                           3267 ;	AOP_HL for _player_idle_anim_frames
   0ACE 21 05 00           3268 	ld	hl,#_player_idle_anim_frames
   0AD1 7E                 3269 	ld	a,(hl)
   0AD2 D6 14              3270 	sub	a,#0x14
   0AD4 23                 3271 	inc	hl
   0AD5 7E                 3272 	ld	a,(hl)
   0AD6 DE 00              3273 	sbc	a,#0x00
   0AD8 D2 E3 0A           3274 	jp	nc,00117$
                           3275 ;	src/food_spirit.c 210
                           3276 ;	genAssign
                           3277 ;	AOP_HL for _player_y_draw_offset
   0ADB 21 02 00           3278 	ld	hl,#_player_y_draw_offset
   0ADE 36 FF              3279 	ld	(hl),#0xFF
                           3280 ;	genGoto
   0AE0 C3 3C 0B           3281 	jp	00119$
                           3282 ;	genLabel
   0AE3                    3283 00117$:
                           3284 ;	src/food_spirit.c 211
                           3285 ;	genCmpLt
                           3286 ;	AOP_HL for _player_idle_anim_frames
   0AE3 21 05 00           3287 	ld	hl,#_player_idle_anim_frames
   0AE6 7E                 3288 	ld	a,(hl)
   0AE7 D6 28              3289 	sub	a,#0x28
   0AE9 23                 3290 	inc	hl
   0AEA 7E                 3291 	ld	a,(hl)
   0AEB DE 00              3292 	sbc	a,#0x00
   0AED D2 F8 0A           3293 	jp	nc,00114$
                           3294 ;	src/food_spirit.c 212
                           3295 ;	genAssign
                           3296 ;	AOP_HL for _player_y_draw_offset
   0AF0 21 02 00           3297 	ld	hl,#_player_y_draw_offset
   0AF3 36 FE              3298 	ld	(hl),#0xFE
                           3299 ;	genGoto
   0AF5 C3 3C 0B           3300 	jp	00119$
                           3301 ;	genLabel
   0AF8                    3302 00114$:
                           3303 ;	src/food_spirit.c 213
                           3304 ;	genCmpLt
                           3305 ;	AOP_HL for _player_idle_anim_frames
   0AF8 21 05 00           3306 	ld	hl,#_player_idle_anim_frames
   0AFB 7E                 3307 	ld	a,(hl)
   0AFC D6 3C              3308 	sub	a,#0x3C
   0AFE 23                 3309 	inc	hl
   0AFF 7E                 3310 	ld	a,(hl)
   0B00 DE 00              3311 	sbc	a,#0x00
   0B02 D2 0D 0B           3312 	jp	nc,00111$
                           3313 ;	src/food_spirit.c 214
                           3314 ;	genAssign
                           3315 ;	AOP_HL for _player_y_draw_offset
   0B05 21 02 00           3316 	ld	hl,#_player_y_draw_offset
   0B08 36 FD              3317 	ld	(hl),#0xFD
                           3318 ;	genGoto
   0B0A C3 3C 0B           3319 	jp	00119$
                           3320 ;	genLabel
   0B0D                    3321 00111$:
                           3322 ;	src/food_spirit.c 215
                           3323 ;	genCmpLt
                           3324 ;	AOP_HL for _player_idle_anim_frames
   0B0D 21 05 00           3325 	ld	hl,#_player_idle_anim_frames
   0B10 7E                 3326 	ld	a,(hl)
   0B11 D6 50              3327 	sub	a,#0x50
   0B13 23                 3328 	inc	hl
   0B14 7E                 3329 	ld	a,(hl)
   0B15 DE 00              3330 	sbc	a,#0x00
   0B17 D2 22 0B           3331 	jp	nc,00108$
                           3332 ;	src/food_spirit.c 216
                           3333 ;	genAssign
                           3334 ;	AOP_HL for _player_y_draw_offset
   0B1A 21 02 00           3335 	ld	hl,#_player_y_draw_offset
   0B1D 36 FE              3336 	ld	(hl),#0xFE
                           3337 ;	genGoto
   0B1F C3 3C 0B           3338 	jp	00119$
                           3339 ;	genLabel
   0B22                    3340 00108$:
                           3341 ;	src/food_spirit.c 217
                           3342 ;	genCmpLt
                           3343 ;	AOP_HL for _player_idle_anim_frames
   0B22 21 05 00           3344 	ld	hl,#_player_idle_anim_frames
   0B25 7E                 3345 	ld	a,(hl)
   0B26 D6 64              3346 	sub	a,#0x64
   0B28 23                 3347 	inc	hl
   0B29 7E                 3348 	ld	a,(hl)
   0B2A DE 00              3349 	sbc	a,#0x00
   0B2C D2 37 0B           3350 	jp	nc,00105$
                           3351 ;	src/food_spirit.c 218
                           3352 ;	genAssign
                           3353 ;	AOP_HL for _player_y_draw_offset
   0B2F 21 02 00           3354 	ld	hl,#_player_y_draw_offset
   0B32 36 FF              3355 	ld	(hl),#0xFF
                           3356 ;	genGoto
   0B34 C3 3C 0B           3357 	jp	00119$
                           3358 ;	genLabel
   0B37                    3359 00105$:
                           3360 ;	src/food_spirit.c 220
                           3361 ;	genAssign
                           3362 ;	AOP_HL for _player_y_draw_offset
   0B37 21 02 00           3363 	ld	hl,#_player_y_draw_offset
   0B3A 36 00              3364 	ld	(hl),#0x00
                           3365 ;	genLabel
   0B3C                    3366 00119$:
                           3367 ;	genEndFunction
                           3368 	
   0B3C C9                 3369 	ret
   0B3D                    3370 ___player_idle_anim_end:
                           3371 ;	src/food_spirit.c 224
                           3372 ;	genLabel
                           3373 ;	genFunction
                           3374 ;	---------------------------------
                           3375 ; Function draw_player
                           3376 ; ---------------------------------
   0B3D                    3377 ___draw_player_start:
   0B3D                    3378 _draw_player:
   0B3D E8 FF              3379 	lda	sp,-1(sp)
                           3380 ;	src/food_spirit.c 227
                           3381 ;	genCmpEq
                           3382 ;	AOP_HL for _player_dir
                           3383 ; genCmpEq: left 1, right 1, result 0
   0B3F 21 03 00           3384 	ld	hl,#_player_dir
   0B42 7E                 3385 	ld	a,(hl)
   0B43 B7                 3386 	or	a,a
   0B44 C2 4F 0B           3387 	jp	nz,00102$
   0B47 18 03              3388 	jr	00107$
   0B49                    3389 00106$:
   0B49 C3 4F 0B           3390 	jp	00102$
   0B4C                    3391 00107$:
                           3392 ;	src/food_spirit.c 228
                           3393 ;	genCall
                           3394 ; _saveRegsForCall: sendSetSize: 0 deInUse: 0 bcInUse: 0 deSending: 0
   0B4C CD B0 0A           3395 	call	_player_idle_anim
                           3396 ;	genLabel
   0B4F                    3397 00102$:
                           3398 ;	src/food_spirit.c 231
                           3399 ;	genPlus
                           3400 ;	AOP_HL for _player_y
                           3401 ;	AOP_HL for _player_y_draw_offset
                           3402 ;	Can't optimise plus by inc, falling back to the normal way
   0B4F 21 01 00           3403 	ld	hl,#_player_y
   0B52 7E                 3404 	ld	a,(hl)
   0B53 21 02 00           3405 	ld	hl,#_player_y_draw_offset
   0B56 86                 3406 	add	a,(hl)
   0B57 4F                 3407 	ld	c,a
                           3408 ;	genAssign
                           3409 ;	(registers are the same)
                           3410 ;	src/food_spirit.c 233
                           3411 ;	genIpush
                           3412 ; _saveRegsForCall: sendSetSize: 0 deInUse: 0 bcInUse: 1 deSending: 0
   0B58 C5                 3413 	push	bc
   0B59 79                 3414 	ld	a,c
   0B5A F5                 3415 	push	af
   0B5B 33                 3416 	inc	sp
                           3417 ;	genIpush
                           3418 ;	AOP_HL for _player_x
   0B5C 21 00 00           3419 	ld	hl,#_player_x
   0B5F 7E                 3420 	ld	a,(hl)
   0B60 F5                 3421 	push	af
   0B61 33                 3422 	inc	sp
                           3423 ;	genIpush
   0B62 3E 00              3424 	ld	a,#0x00
   0B64 F5                 3425 	push	af
   0B65 33                 3426 	inc	sp
                           3427 ;	genCall
   0B66 CD 00 00           3428 	call	_move_sprite
   0B69 E8 03              3429 	lda	sp,3(sp)
   0B6B E1                 3430 	pop	hl
   0B6C 4D                 3431 	ld	c,l
                           3432 ;	src/food_spirit.c 234
                           3433 ;	genPlus
                           3434 ;	AOP_HL for _player_x
                           3435 ;	genPlusIncr
                           3436 ;	Can't optimise plus by inc, falling back to the normal way
   0B6D 21 00 00           3437 	ld	hl,#_player_x
   0B70 7E                 3438 	ld	a,(hl)
   0B71 C6 08              3439 	add	a,#0x08
   0B73 47                 3440 	ld	b,a
                           3441 ;	genIpush
                           3442 ; _saveRegsForCall: sendSetSize: 0 deInUse: 0 bcInUse: 1 deSending: 0
   0B74 C5                 3443 	push	bc
   0B75 79                 3444 	ld	a,c
   0B76 F5                 3445 	push	af
   0B77 33                 3446 	inc	sp
                           3447 ;	genIpush
   0B78 78                 3448 	ld	a,b
   0B79 F5                 3449 	push	af
   0B7A 33                 3450 	inc	sp
                           3451 ;	genIpush
   0B7B 3E 01              3452 	ld	a,#0x01
   0B7D F5                 3453 	push	af
   0B7E 33                 3454 	inc	sp
                           3455 ;	genCall
   0B7F CD 00 00           3456 	call	_move_sprite
   0B82 E8 03              3457 	lda	sp,3(sp)
   0B84 C1                 3458 	pop	bc
                           3459 ;	src/food_spirit.c 235
                           3460 ;	genPlus
                           3461 ;	AOP_STK for _draw_player_sloc0_1_0
                           3462 ;	genPlusIncr
                           3463 ;	Can't optimise plus by inc, falling back to the normal way
   0B85 79                 3464 	ld	a,c
   0B86 C6 08              3465 	add	a,#0x08
   0B88 F8 00              3466 	lda	hl,0(sp)
   0B8A 77                 3467 	ld	(hl),a
                           3468 ;	genIpush
                           3469 ; _saveRegsForCall: sendSetSize: 0 deInUse: 0 bcInUse: 1 deSending: 0
   0B8B C5                 3470 	push	bc
                           3471 ;	AOP_STK for _draw_player_sloc0_1_0
   0B8C 7E                 3472 	ld	a,(hl)
   0B8D F5                 3473 	push	af
   0B8E 33                 3474 	inc	sp
                           3475 ;	genIpush
                           3476 ;	AOP_HL for _player_x
   0B8F 21 00 00           3477 	ld	hl,#_player_x
   0B92 7E                 3478 	ld	a,(hl)
   0B93 F5                 3479 	push	af
   0B94 33                 3480 	inc	sp
                           3481 ;	genIpush
   0B95 3E 02              3482 	ld	a,#0x02
   0B97 F5                 3483 	push	af
   0B98 33                 3484 	inc	sp
                           3485 ;	genCall
   0B99 CD 00 00           3486 	call	_move_sprite
   0B9C E8 03              3487 	lda	sp,3(sp)
   0B9E C1                 3488 	pop	bc
                           3489 ;	src/food_spirit.c 236
                           3490 ;	genIpush
                           3491 ; _saveRegsForCall: sendSetSize: 0 deInUse: 0 bcInUse: 1 deSending: 0
   0B9F C5                 3492 	push	bc
                           3493 ;	AOP_STK for _draw_player_sloc0_1_0
   0BA0 F8 02              3494 	lda	hl,2(sp)
   0BA2 7E                 3495 	ld	a,(hl)
   0BA3 F5                 3496 	push	af
   0BA4 33                 3497 	inc	sp
                           3498 ;	genIpush
   0BA5 78                 3499 	ld	a,b
   0BA6 F5                 3500 	push	af
   0BA7 33                 3501 	inc	sp
                           3502 ;	genIpush
   0BA8 3E 03              3503 	ld	a,#0x03
   0BAA F5                 3504 	push	af
   0BAB 33                 3505 	inc	sp
                           3506 ;	genCall
   0BAC CD 00 00           3507 	call	_move_sprite
   0BAF E8 03              3508 	lda	sp,3(sp)
   0BB1 C1                 3509 	pop	bc
                           3510 ;	src/food_spirit.c 237
                           3511 ;	genPlus
                           3512 ;	genPlusIncr
                           3513 ;	Can't optimise plus by inc, falling back to the normal way
   0BB2 79                 3514 	ld	a,c
   0BB3 C6 10              3515 	add	a,#0x10
   0BB5 4F                 3516 	ld	c,a
                           3517 ;	genIpush
                           3518 ; _saveRegsForCall: sendSetSize: 0 deInUse: 0 bcInUse: 1 deSending: 0
   0BB6 C5                 3519 	push	bc
   0BB7 79                 3520 	ld	a,c
   0BB8 F5                 3521 	push	af
   0BB9 33                 3522 	inc	sp
                           3523 ;	genIpush
                           3524 ;	AOP_HL for _player_x
   0BBA 21 00 00           3525 	ld	hl,#_player_x
   0BBD 7E                 3526 	ld	a,(hl)
   0BBE F5                 3527 	push	af
   0BBF 33                 3528 	inc	sp
                           3529 ;	genIpush
   0BC0 3E 04              3530 	ld	a,#0x04
   0BC2 F5                 3531 	push	af
   0BC3 33                 3532 	inc	sp
                           3533 ;	genCall
   0BC4 CD 00 00           3534 	call	_move_sprite
   0BC7 E8 03              3535 	lda	sp,3(sp)
   0BC9 C1                 3536 	pop	bc
                           3537 ;	src/food_spirit.c 238
                           3538 ;	genIpush
                           3539 ; _saveRegsForCall: sendSetSize: 0 deInUse: 0 bcInUse: 0 deSending: 0
   0BCA 79                 3540 	ld	a,c
   0BCB F5                 3541 	push	af
   0BCC 33                 3542 	inc	sp
                           3543 ;	genIpush
   0BCD 78                 3544 	ld	a,b
   0BCE F5                 3545 	push	af
   0BCF 33                 3546 	inc	sp
                           3547 ;	genIpush
   0BD0 3E 05              3548 	ld	a,#0x05
   0BD2 F5                 3549 	push	af
   0BD3 33                 3550 	inc	sp
                           3551 ;	genCall
   0BD4 CD 00 00           3552 	call	_move_sprite
   0BD7 E8 03              3553 	lda	sp,3(sp)
                           3554 ;	genLabel
   0BD9                    3555 00103$:
                           3556 ;	genEndFunction
   0BD9 E8 01              3557 	lda	sp,1(sp)
   0BDB C9                 3558 	ret
   0BDC                    3559 ___draw_player_end:
                           3560 ;	src/food_spirit.c 241
                           3561 ;	genLabel
                           3562 ;	genFunction
                           3563 ;	---------------------------------
                           3564 ; Function draw_foods
                           3565 ; ---------------------------------
   0BDC                    3566 ___draw_foods_start:
   0BDC                    3567 _draw_foods:
   0BDC E8 F6              3568 	lda	sp,-10(sp)
                           3569 ;	src/food_spirit.c 245
                           3570 ;	genCall
                           3571 ; _saveRegsForCall: sendSetSize: 0 deInUse: 0 bcInUse: 0 deSending: 0
   0BDE CD 00 00           3572 	call	_get_rand_ready
   0BE1 4B                 3573 	ld	c,e
                           3574 ;	genCmpEq
                           3575 ; genCmpEq: left 1, right 1, result 0
   0BE2 79                 3576 	ld	a,c
   0BE3 B7                 3577 	or	a,a
                           3578 ;	src/food_spirit.c 246
                           3579 ;	genRet
                           3580 ;	genLabel
   0BE4 CA EA 0B           3581 	jp	z,00102$
   0BE7                    3582 00112$:
   0BE7 C3 D0 0C           3583 	jp	00107$
   0BEA                    3584 00102$:
                           3585 ;	src/food_spirit.c 249
                           3586 ;	genAssign
                           3587 ;	AOP_STK for _draw_foods_i_1_1
   0BEA F8 08              3588 	lda	hl,8(sp)
   0BEC 36 00              3589 	ld	(hl),#0x00
                           3590 ;	src/food_spirit.c 250
                           3591 ;	genAssign
                           3592 ;	AOP_STK for _draw_foods_spr_1_1
   0BEE 23                 3593 	inc	hl
   0BEF 36 00              3594 	ld	(hl),#0x00
                           3595 ;	genLabel
   0BF1                    3596 00103$:
                           3597 ;	genCmpLt
                           3598 ;	AOP_STK for _draw_foods_spr_1_1
   0BF1 F8 09              3599 	lda	hl,9(sp)
   0BF3 7E                 3600 	ld	a,(hl)
   0BF4 FE 20              3601 	cp	#0x20
   0BF6 D2 D0 0C           3602 	jp	nc,00107$
                           3603 ;	src/food_spirit.c 252
                           3604 ;	genMult
                           3605 ;	AOP_STK for _draw_foods_i_1_1
                           3606 ;	AOP_STK for _draw_foods_sloc0_1_0
   0BF9 2B                 3607 	dec	hl
   0BFA 5E                 3608 	ld	e,(hl)
   0BFB 16 00              3609 	ld	d,#0x00
   0BFD 6B                 3610 	ld	l,e
   0BFE 62                 3611 	ld	h,d
   0BFF 29                 3612 	add	hl,hl
   0C00 29                 3613 	add	hl,hl
   0C01 19                 3614 	add	hl,de
   0C02 29                 3615 	add	hl,hl
   0C03 19                 3616 	add	hl,de
   0C04 7D                 3617 	ld	a,l
   0C05 54                 3618 	ld	d,h
   0C06 F8 04              3619 	lda	hl,4(sp)
   0C08 22                 3620 	ld	(hl+),a
   0C09 72                 3621 	ld	(hl),d
                           3622 ;	genPlus
                           3623 ;	AOP_STK for _draw_foods_sloc0_1_0
                           3624 ;	AOP_STK for _draw_foods_f_2_3
                           3625 ;	Can't optimise plus by inc, falling back to the normal way
   0C0A 11 07 00           3626 	ld	de,#_foods
   0C0D 2B                 3627 	dec	hl
   0C0E 2A                 3628 	ld	a,(hl+)
   0C0F 66                 3629 	ld	h,(hl)
   0C10 6F                 3630 	ld	l,a
   0C11 19                 3631 	add	hl,de
   0C12 7D                 3632 	ld	a,l
   0C13 54                 3633 	ld	d,h
   0C14 F8 06              3634 	lda	hl,6(sp)
   0C16 22                 3635 	ld	(hl+),a
   0C17 72                 3636 	ld	(hl),d
                           3637 ;	genAssign
                           3638 ;	AOP_STK for _draw_foods_f_2_3
                           3639 ;	(registers are the same)
                           3640 ;	src/food_spirit.c 254
                           3641 ;	genPlus
                           3642 ;	AOP_STK for _draw_foods_f_2_3
                           3643 ;	AOP_STK for _draw_foods_sloc0_1_0
                           3644 ;	genPlusIncr
                           3645 ;	Can't optimise plus by inc, falling back to the normal way
   0C18 2B                 3646 	dec	hl
   0C19 5E                 3647 	ld	e,(hl)
   0C1A 23                 3648 	inc	hl
   0C1B 56                 3649 	ld	d,(hl)
   0C1C 21 02 00           3650 	ld	hl,#0x0002
   0C1F 19                 3651 	add	hl,de
   0C20 7D                 3652 	ld	a,l
   0C21 54                 3653 	ld	d,h
   0C22 F8 04              3654 	lda	hl,4(sp)
                           3655 ;	genPointerGet
                           3656 ;	AOP_STK for _draw_foods_sloc0_1_0
   0C24 22                 3657 	ld	(hl+),a
   0C25 72                 3658 	ld	(hl),d
   0C26 5F                 3659 	ld	e,a
   0C27 1A                 3660 	ld	a,(de)
   0C28 4F                 3661 	ld	c,a
                           3662 ;	genPlus
                           3663 ;	AOP_STK for _draw_foods_f_2_3
                           3664 ;	AOP_STK for _draw_foods_sloc1_1_0
                           3665 ;	genPlusIncr
                           3666 ;	Can't optimise plus by inc, falling back to the normal way
   0C29 23                 3667 	inc	hl
   0C2A 5E                 3668 	ld	e,(hl)
   0C2B 23                 3669 	inc	hl
   0C2C 56                 3670 	ld	d,(hl)
   0C2D 21 01 00           3671 	ld	hl,#0x0001
   0C30 19                 3672 	add	hl,de
   0C31 7D                 3673 	ld	a,l
   0C32 54                 3674 	ld	d,h
   0C33 F8 02              3675 	lda	hl,2(sp)
                           3676 ;	genPointerGet
                           3677 ;	AOP_STK for _draw_foods_sloc1_1_0
   0C35 22                 3678 	ld	(hl+),a
   0C36 72                 3679 	ld	(hl),d
   0C37 5F                 3680 	ld	e,a
   0C38 1A                 3681 	ld	a,(de)
   0C39 47                 3682 	ld	b,a
                           3683 ;	genPlus
                           3684 ;	AOP_STK for _draw_foods_spr_1_1
                           3685 ;	AOP_STK for _draw_foods_sloc2_1_0
                           3686 ;	genPlusIncr
                           3687 ;	Can't optimise plus by inc, falling back to the normal way
   0C3A F8 09              3688 	lda	hl,9(sp)
   0C3C 7E                 3689 	ld	a,(hl)
   0C3D C6 06              3690 	add	a,#0x06
   0C3F F8 01              3691 	lda	hl,1(sp)
   0C41 77                 3692 	ld	(hl),a
                           3693 ;	genIpush
                           3694 ; _saveRegsForCall: sendSetSize: 0 deInUse: 0 bcInUse: 0 deSending: 0
   0C42 79                 3695 	ld	a,c
   0C43 F5                 3696 	push	af
   0C44 33                 3697 	inc	sp
                           3698 ;	genIpush
   0C45 78                 3699 	ld	a,b
   0C46 F5                 3700 	push	af
   0C47 33                 3701 	inc	sp
                           3702 ;	genIpush
                           3703 ;	AOP_STK for _draw_foods_sloc2_1_0
   0C48 7E                 3704 	ld	a,(hl)
   0C49 F5                 3705 	push	af
   0C4A 33                 3706 	inc	sp
                           3707 ;	genCall
   0C4B CD 00 00           3708 	call	_move_sprite
   0C4E E8 03              3709 	lda	sp,3(sp)
                           3710 ;	src/food_spirit.c 255
                           3711 ;	genPointerGet
                           3712 ;	AOP_STK for _draw_foods_sloc0_1_0
   0C50 F8 04              3713 	lda	hl,4(sp)
   0C52 5E                 3714 	ld	e,(hl)
   0C53 23                 3715 	inc	hl
   0C54 56                 3716 	ld	d,(hl)
   0C55 1A                 3717 	ld	a,(de)
   0C56 4F                 3718 	ld	c,a
                           3719 ;	genPointerGet
                           3720 ;	AOP_STK for _draw_foods_sloc1_1_0
   0C57 F8 02              3721 	lda	hl,2(sp)
   0C59 5E                 3722 	ld	e,(hl)
   0C5A 23                 3723 	inc	hl
   0C5B 56                 3724 	ld	d,(hl)
   0C5C 1A                 3725 	ld	a,(de)
                           3726 ;	genPlus
                           3727 ;	genPlusIncr
                           3728 ;	Can't optimise plus by inc, falling back to the normal way
   0C5D 47                 3729 	ld	b,a
   0C5E C6 08              3730 	add	a,#0x08
   0C60 47                 3731 	ld	b,a
                           3732 ;	genPlus
                           3733 ;	AOP_STK for _draw_foods_sloc2_1_0
                           3734 ;	AOP_STK for _draw_foods_sloc3_1_0
                           3735 ;	genPlusIncr
                           3736 ;	Can't optimise plus by inc, falling back to the normal way
   0C61 2B                 3737 	dec	hl
   0C62 2B                 3738 	dec	hl
   0C63 7E                 3739 	ld	a,(hl)
   0C64 C6 01              3740 	add	a,#0x01
   0C66 2B                 3741 	dec	hl
   0C67 77                 3742 	ld	(hl),a
                           3743 ;	genIpush
                           3744 ; _saveRegsForCall: sendSetSize: 0 deInUse: 0 bcInUse: 0 deSending: 0
   0C68 79                 3745 	ld	a,c
   0C69 F5                 3746 	push	af
   0C6A 33                 3747 	inc	sp
                           3748 ;	genIpush
   0C6B 78                 3749 	ld	a,b
   0C6C F5                 3750 	push	af
   0C6D 33                 3751 	inc	sp
                           3752 ;	genIpush
                           3753 ;	AOP_STK for _draw_foods_sloc3_1_0
   0C6E 7E                 3754 	ld	a,(hl)
   0C6F F5                 3755 	push	af
   0C70 33                 3756 	inc	sp
                           3757 ;	genCall
   0C71 CD 00 00           3758 	call	_move_sprite
   0C74 E8 03              3759 	lda	sp,3(sp)
                           3760 ;	src/food_spirit.c 256
                           3761 ;	genPointerGet
                           3762 ;	AOP_STK for _draw_foods_sloc0_1_0
   0C76 F8 04              3763 	lda	hl,4(sp)
   0C78 5E                 3764 	ld	e,(hl)
   0C79 23                 3765 	inc	hl
   0C7A 56                 3766 	ld	d,(hl)
   0C7B 1A                 3767 	ld	a,(de)
                           3768 ;	genPlus
                           3769 ;	genPlusIncr
                           3770 ;	Can't optimise plus by inc, falling back to the normal way
   0C7C 4F                 3771 	ld	c,a
   0C7D C6 08              3772 	add	a,#0x08
   0C7F 4F                 3773 	ld	c,a
                           3774 ;	genPointerGet
                           3775 ;	AOP_STK for _draw_foods_sloc1_1_0
   0C80 F8 02              3776 	lda	hl,2(sp)
   0C82 5E                 3777 	ld	e,(hl)
   0C83 23                 3778 	inc	hl
   0C84 56                 3779 	ld	d,(hl)
   0C85 1A                 3780 	ld	a,(de)
   0C86 47                 3781 	ld	b,a
                           3782 ;	genPlus
                           3783 ;	AOP_STK for _draw_foods_sloc2_1_0
                           3784 ;	AOP_STK for _draw_foods_sloc3_1_0
                           3785 ;	genPlusIncr
                           3786 ;	Can't optimise plus by inc, falling back to the normal way
   0C87 2B                 3787 	dec	hl
   0C88 2B                 3788 	dec	hl
   0C89 7E                 3789 	ld	a,(hl)
   0C8A C6 02              3790 	add	a,#0x02
   0C8C 2B                 3791 	dec	hl
   0C8D 77                 3792 	ld	(hl),a
                           3793 ;	genIpush
                           3794 ; _saveRegsForCall: sendSetSize: 0 deInUse: 0 bcInUse: 0 deSending: 0
   0C8E 79                 3795 	ld	a,c
   0C8F F5                 3796 	push	af
   0C90 33                 3797 	inc	sp
                           3798 ;	genIpush
   0C91 78                 3799 	ld	a,b
   0C92 F5                 3800 	push	af
   0C93 33                 3801 	inc	sp
                           3802 ;	genIpush
                           3803 ;	AOP_STK for _draw_foods_sloc3_1_0
   0C94 7E                 3804 	ld	a,(hl)
   0C95 F5                 3805 	push	af
   0C96 33                 3806 	inc	sp
                           3807 ;	genCall
   0C97 CD 00 00           3808 	call	_move_sprite
   0C9A E8 03              3809 	lda	sp,3(sp)
                           3810 ;	src/food_spirit.c 257
                           3811 ;	genPointerGet
                           3812 ;	AOP_STK for _draw_foods_sloc0_1_0
   0C9C F8 04              3813 	lda	hl,4(sp)
   0C9E 5E                 3814 	ld	e,(hl)
   0C9F 23                 3815 	inc	hl
   0CA0 56                 3816 	ld	d,(hl)
   0CA1 1A                 3817 	ld	a,(de)
                           3818 ;	genPlus
                           3819 ;	genPlusIncr
                           3820 ;	Can't optimise plus by inc, falling back to the normal way
   0CA2 4F                 3821 	ld	c,a
   0CA3 C6 08              3822 	add	a,#0x08
   0CA5 4F                 3823 	ld	c,a
                           3824 ;	genPointerGet
                           3825 ;	AOP_STK for _draw_foods_sloc1_1_0
   0CA6 F8 02              3826 	lda	hl,2(sp)
   0CA8 5E                 3827 	ld	e,(hl)
   0CA9 23                 3828 	inc	hl
   0CAA 56                 3829 	ld	d,(hl)
   0CAB 1A                 3830 	ld	a,(de)
                           3831 ;	genPlus
                           3832 ;	genPlusIncr
                           3833 ;	Can't optimise plus by inc, falling back to the normal way
   0CAC 47                 3834 	ld	b,a
   0CAD C6 08              3835 	add	a,#0x08
   0CAF 47                 3836 	ld	b,a
                           3837 ;	genPlus
                           3838 ;	AOP_STK for _draw_foods_sloc2_1_0
                           3839 ;	AOP_STK for _draw_foods_sloc3_1_0
                           3840 ;	genPlusIncr
                           3841 ;	Can't optimise plus by inc, falling back to the normal way
   0CB0 2B                 3842 	dec	hl
   0CB1 2B                 3843 	dec	hl
   0CB2 7E                 3844 	ld	a,(hl)
   0CB3 C6 03              3845 	add	a,#0x03
   0CB5 2B                 3846 	dec	hl
   0CB6 77                 3847 	ld	(hl),a
                           3848 ;	genIpush
                           3849 ; _saveRegsForCall: sendSetSize: 0 deInUse: 0 bcInUse: 0 deSending: 0
   0CB7 79                 3850 	ld	a,c
   0CB8 F5                 3851 	push	af
   0CB9 33                 3852 	inc	sp
                           3853 ;	genIpush
   0CBA 78                 3854 	ld	a,b
   0CBB F5                 3855 	push	af
   0CBC 33                 3856 	inc	sp
                           3857 ;	genIpush
                           3858 ;	AOP_STK for _draw_foods_sloc3_1_0
   0CBD 7E                 3859 	ld	a,(hl)
   0CBE F5                 3860 	push	af
   0CBF 33                 3861 	inc	sp
                           3862 ;	genCall
   0CC0 CD 00 00           3863 	call	_move_sprite
   0CC3 E8 03              3864 	lda	sp,3(sp)
                           3865 ;	src/food_spirit.c 259
                           3866 ;	genPlus
                           3867 ;	AOP_STK for _draw_foods_i_1_1
                           3868 ;	genPlusIncr
   0CC5 F8 08              3869 	lda	hl,8(sp)
   0CC7 34                 3870 	inc	(hl)
                           3871 ;	src/food_spirit.c 250
                           3872 ;	genPlus
                           3873 ;	AOP_STK for _draw_foods_spr_1_1
                           3874 ;	genPlusIncr
   0CC8 23                 3875 	inc	hl
   0CC9 34                 3876 	inc	(hl)
   0CCA 34                 3877 	inc	(hl)
   0CCB 34                 3878 	inc	(hl)
   0CCC 34                 3879 	inc	(hl)
                           3880 ;	genGoto
   0CCD C3 F1 0B           3881 	jp	00103$
                           3882 ;	genLabel
   0CD0                    3883 00107$:
                           3884 ;	genEndFunction
   0CD0 E8 0A              3885 	lda	sp,10(sp)
   0CD2 C9                 3886 	ret
   0CD3                    3887 ___draw_foods_end:
                           3888 ;	src/food_spirit.c 263
                           3889 ;	genLabel
                           3890 ;	genFunction
                           3891 ;	---------------------------------
                           3892 ; Function init_player
                           3893 ; ---------------------------------
   0CD3                    3894 ___init_player_start:
   0CD3                    3895 _init_player:
                           3896 	
                           3897 ;	src/food_spirit.c 264
                           3898 ;	genAssign
                           3899 ;	AOP_HL for _player_x
   0CD3 21 00 00           3900 	ld	hl,#_player_x
   0CD6 36 28              3901 	ld	(hl),#0x28
                           3902 ;	src/food_spirit.c 265
                           3903 ;	genAssign
                           3904 ;	AOP_HL for _player_y
   0CD8 21 01 00           3905 	ld	hl,#_player_y
   0CDB 36 28              3906 	ld	(hl),#0x28
                           3907 ;	src/food_spirit.c 266
                           3908 ;	genAssign
                           3909 ;	AOP_HL for _player_jump_frames
   0CDD 21 04 00           3910 	ld	hl,#_player_jump_frames
   0CE0 36 00              3911 	ld	(hl),#0x00
                           3912 ;	src/food_spirit.c 267
                           3913 ;	genAssign
                           3914 ;	AOP_HL for _player_idle_anim_frames
   0CE2 21 05 00           3915 	ld	hl,#_player_idle_anim_frames
   0CE5 36 00              3916 	ld	(hl),#0x00
   0CE7 23                 3917 	inc	hl
   0CE8 36 00              3918 	ld	(hl),#0x00
                           3919 ;	src/food_spirit.c 268
                           3920 ;	genAssign
                           3921 ;	AOP_HL for _player_y_draw_offset
   0CEA 21 02 00           3922 	ld	hl,#_player_y_draw_offset
   0CED 36 00              3923 	ld	(hl),#0x00
                           3924 ;	src/food_spirit.c 270
                           3925 ;	genIpush
                           3926 ; _saveRegsForCall: sendSetSize: 0 deInUse: 0 bcInUse: 0 deSending: 0
   0CEF 21 81 04           3927 	ld	hl,#_PAL_PLAYER
   0CF2 E5                 3928 	push	hl
                           3929 ;	genIpush
   0CF3 21 69 00           3930 	ld	hl,#_SPR_DAT_PLAYER_0_0_MID
   0CF6 E5                 3931 	push	hl
                           3932 ;	genIpush
   0CF7 21 00 00           3933 	ld	hl,#0x0000
   0CFA E5                 3934 	push	hl
                           3935 ;	genIpush
   0CFB 21 00 00           3936 	ld	hl,#0x0000
   0CFE E5                 3937 	push	hl
                           3938 ;	genCall
   0CFF CD 00 00           3939 	call	_set_up_sprite_simple
   0D02 E8 08              3940 	lda	sp,8(sp)
                           3941 ;	src/food_spirit.c 271
                           3942 ;	genIpush
                           3943 ; _saveRegsForCall: sendSetSize: 0 deInUse: 0 bcInUse: 0 deSending: 0
   0D04 21 81 04           3944 	ld	hl,#_PAL_PLAYER
   0D07 E5                 3945 	push	hl
                           3946 ;	genIpush
   0D08 21 79 00           3947 	ld	hl,#_SPR_DAT_PLAYER_1_0_MID
   0D0B E5                 3948 	push	hl
                           3949 ;	genIpush
   0D0C 21 00 00           3950 	ld	hl,#0x0000
   0D0F E5                 3951 	push	hl
                           3952 ;	genIpush
   0D10 21 01 00           3953 	ld	hl,#0x0001
   0D13 E5                 3954 	push	hl
                           3955 ;	genCall
   0D14 CD 00 00           3956 	call	_set_up_sprite_simple
   0D17 E8 08              3957 	lda	sp,8(sp)
                           3958 ;	src/food_spirit.c 272
                           3959 ;	genIpush
                           3960 ; _saveRegsForCall: sendSetSize: 0 deInUse: 0 bcInUse: 0 deSending: 0
   0D19 21 81 04           3961 	ld	hl,#_PAL_PLAYER
   0D1C E5                 3962 	push	hl
                           3963 ;	genIpush
   0D1D 21 89 00           3964 	ld	hl,#_SPR_DAT_PLAYER_0_1_MID
   0D20 E5                 3965 	push	hl
                           3966 ;	genIpush
   0D21 21 00 00           3967 	ld	hl,#0x0000
   0D24 E5                 3968 	push	hl
                           3969 ;	genIpush
   0D25 21 02 00           3970 	ld	hl,#0x0002
   0D28 E5                 3971 	push	hl
                           3972 ;	genCall
   0D29 CD 00 00           3973 	call	_set_up_sprite_simple
   0D2C E8 08              3974 	lda	sp,8(sp)
                           3975 ;	src/food_spirit.c 273
                           3976 ;	genIpush
                           3977 ; _saveRegsForCall: sendSetSize: 0 deInUse: 0 bcInUse: 0 deSending: 0
   0D2E 21 81 04           3978 	ld	hl,#_PAL_PLAYER
   0D31 E5                 3979 	push	hl
                           3980 ;	genIpush
   0D32 21 99 00           3981 	ld	hl,#_SPR_DAT_PLAYER_1_1_MID
   0D35 E5                 3982 	push	hl
                           3983 ;	genIpush
   0D36 21 00 00           3984 	ld	hl,#0x0000
   0D39 E5                 3985 	push	hl
                           3986 ;	genIpush
   0D3A 21 03 00           3987 	ld	hl,#0x0003
   0D3D E5                 3988 	push	hl
                           3989 ;	genCall
   0D3E CD 00 00           3990 	call	_set_up_sprite_simple
   0D41 E8 08              3991 	lda	sp,8(sp)
                           3992 ;	src/food_spirit.c 274
                           3993 ;	genIpush
                           3994 ; _saveRegsForCall: sendSetSize: 0 deInUse: 0 bcInUse: 0 deSending: 0
   0D43 21 81 04           3995 	ld	hl,#_PAL_PLAYER
   0D46 E5                 3996 	push	hl
                           3997 ;	genIpush
   0D47 21 A9 00           3998 	ld	hl,#_SPR_DAT_PLAYER_0_2_MID
   0D4A E5                 3999 	push	hl
                           4000 ;	genIpush
   0D4B 21 00 00           4001 	ld	hl,#0x0000
   0D4E E5                 4002 	push	hl
                           4003 ;	genIpush
   0D4F 21 04 00           4004 	ld	hl,#0x0004
   0D52 E5                 4005 	push	hl
                           4006 ;	genCall
   0D53 CD 00 00           4007 	call	_set_up_sprite_simple
   0D56 E8 08              4008 	lda	sp,8(sp)
                           4009 ;	src/food_spirit.c 275
                           4010 ;	genIpush
                           4011 ; _saveRegsForCall: sendSetSize: 0 deInUse: 0 bcInUse: 0 deSending: 0
   0D58 21 81 04           4012 	ld	hl,#_PAL_PLAYER
   0D5B E5                 4013 	push	hl
                           4014 ;	genIpush
   0D5C 21 B9 00           4015 	ld	hl,#_SPR_DAT_PLAYER_1_2_MID
   0D5F E5                 4016 	push	hl
                           4017 ;	genIpush
   0D60 21 00 00           4018 	ld	hl,#0x0000
   0D63 E5                 4019 	push	hl
                           4020 ;	genIpush
   0D64 21 05 00           4021 	ld	hl,#0x0005
   0D67 E5                 4022 	push	hl
                           4023 ;	genCall
   0D68 CD 00 00           4024 	call	_set_up_sprite_simple
   0D6B E8 08              4025 	lda	sp,8(sp)
                           4026 ;	genLabel
   0D6D                    4027 00101$:
                           4028 ;	genEndFunction
                           4029 	
   0D6D C9                 4030 	ret
   0D6E                    4031 ___init_player_end:
                           4032 ;	src/food_spirit.c 278
                           4033 ;	genLabel
                           4034 ;	genFunction
                           4035 ;	---------------------------------
                           4036 ; Function set_up_food_sprite
                           4037 ; ---------------------------------
   0D6E                    4038 ___set_up_food_sprite_start:
   0D6E                    4039 _set_up_food_sprite:
                           4040 	
                           4041 ;	src/food_spirit.c 279
                           4042 ;	genAssign
                           4043 ;	AOP_STK for 
   0D6E F8 02              4044 	lda	hl,2(sp)
   0D70 4E                 4045 	ld	c,(hl)
   0D71 23                 4046 	inc	hl
   0D72 46                 4047 	ld	b,(hl)
                           4048 ;	genPlus
                           4049 ;	genPlusIncr
                           4050 ;	Can't optimise plus by inc, falling back to the normal way
   0D73 79                 4051 	ld	a,c
   0D74 C6 06              4052 	add	a,#0x06
   0D76 4F                 4053 	ld	c,a
   0D77 78                 4054 	ld	a,b
   0D78 CE 00              4055 	adc	a,#0x00
   0D7A 47                 4056 	ld	b,a
                           4057 ;	genCast
                           4058 ;	AOP_STK for 
   0D7B F8 06              4059 	lda	hl,6(sp)
   0D7D 7E                 4060 	ld	a,(hl)
                           4061 ;	genAssign (pointer)
   0D7E 02                 4062 	ld	(bc),a
                           4063 ;	src/food_spirit.c 281
                           4064 ;	genIpush
                           4065 ; _saveRegsForCall: sendSetSize: 0 deInUse: 0 bcInUse: 0 deSending: 0
                           4066 ;	AOP_STK for 
   0D7F F8 0A              4067 	lda	hl,10(sp)
   0D81 2A                 4068 	ld	a,(hl+)
   0D82 66                 4069 	ld	h,(hl)
   0D83 6F                 4070 	ld	l,a
   0D84 E5                 4071 	push	hl
                           4072 ;	genIpush
                           4073 ;	AOP_STK for 
   0D85 F8 0A              4074 	lda	hl,10(sp)
   0D87 2A                 4075 	ld	a,(hl+)
   0D88 66                 4076 	ld	h,(hl)
   0D89 6F                 4077 	ld	l,a
   0D8A E5                 4078 	push	hl
                           4079 ;	genIpush
                           4080 ;	AOP_STK for 
   0D8B F8 0A              4081 	lda	hl,10(sp)
   0D8D 2A                 4082 	ld	a,(hl+)
   0D8E 66                 4083 	ld	h,(hl)
   0D8F 6F                 4084 	ld	l,a
   0D90 E5                 4085 	push	hl
                           4086 ;	genIpush
                           4087 ;	AOP_STK for 
   0D91 F8 0A              4088 	lda	hl,10(sp)
   0D93 2A                 4089 	ld	a,(hl+)
   0D94 66                 4090 	ld	h,(hl)
   0D95 6F                 4091 	ld	l,a
   0D96 E5                 4092 	push	hl
                           4093 ;	genCall
   0D97 CD 00 00           4094 	call	_set_up_sprite_simple
   0D9A E8 08              4095 	lda	sp,8(sp)
                           4096 ;	genLabel
   0D9C                    4097 00101$:
                           4098 ;	genEndFunction
                           4099 	
   0D9C C9                 4100 	ret
   0D9D                    4101 ___set_up_food_sprite_end:
                           4102 ;	src/food_spirit.c 284
                           4103 ;	genLabel
                           4104 ;	genFunction
                           4105 ;	---------------------------------
                           4106 ; Function set_food_type
                           4107 ; ---------------------------------
   0D9D                    4108 ___set_food_type_start:
   0D9D                    4109 _set_food_type:
   0D9D E8 F5              4110 	lda	sp,-11(sp)
                           4111 ;	src/food_spirit.c 288
                           4112 ;	genLeftShift
                           4113 ;	AOP_STK for 
   0D9F F8 0D              4114 	lda	hl,13(sp)
   0DA1 4E                 4115 	ld	c,(hl)
   0DA2 23                 4116 	inc	hl
   0DA3 46                 4117 	ld	b,(hl)
   0DA4 3E 03              4118 	ld	a,#0x02+1
   0DA6 18 04              4119 	jr	00111$
   0DA8                    4120 00110$:
   0DA8 CB 21              4121 	sla	c
   0DAA CB 10              4122 	rl	b
   0DAC                    4123 00111$:
   0DAC 3D                 4124 	dec	a
   0DAD 20 F9              4125 	jr	nz,00110$
                           4126 ;	genCast
                           4127 ;	AOP_STK for _set_food_type_spr_1_1
   0DAF F8 0A              4128 	lda	hl,10(sp)
   0DB1 71                 4129 	ld	(hl),c
                           4130 ;	src/food_spirit.c 289
                           4131 ;	genMult
                           4132 ;	AOP_STK for 
   0DB2 F8 0D              4133 	lda	hl,13(sp)
   0DB4 5E                 4134 	ld	e,(hl)
   0DB5 23                 4135 	inc	hl
   0DB6 56                 4136 	ld	d,(hl)
   0DB7 6B                 4137 	ld	l,e
   0DB8 62                 4138 	ld	h,d
   0DB9 29                 4139 	add	hl,hl
   0DBA 29                 4140 	add	hl,hl
   0DBB 19                 4141 	add	hl,de
   0DBC 29                 4142 	add	hl,hl
   0DBD 19                 4143 	add	hl,de
   0DBE 45                 4144 	ld	b,l
   0DBF 4C                 4145 	ld	c,h
                           4146 ;	genPlus
                           4147 ;	Can't optimise plus by inc, falling back to the normal way
   0DC0 3E 07              4148 	ld	a,#<_foods
   0DC2 80                 4149 	add	a,b
   0DC3 47                 4150 	ld	b,a
   0DC4 3E 00              4151 	ld	a,#>_foods
   0DC6 89                 4152 	adc	a,c
   0DC7 4F                 4153 	ld	c,a
                           4154 ;	genAssign
                           4155 ;	AOP_STK for _set_food_type_f_1_1
   0DC8 F8 08              4156 	lda	hl,8(sp)
   0DCA 70                 4157 	ld	(hl),b
   0DCB 23                 4158 	inc	hl
   0DCC 71                 4159 	ld	(hl),c
                           4160 ;	src/food_spirit.c 291
                           4161 ;	genCast
                           4162 ;	AOP_STK for 
   0DCD F8 0F              4163 	lda	hl,15(sp)
   0DCF 7E                 4164 	ld	a,(hl)
                           4165 ;	genAssign (pointer)
                           4166 ;	AOP_STK for _set_food_type_f_1_1
   0DD0 F8 08              4167 	lda	hl,8(sp)
   0DD2 5E                 4168 	ld	e,(hl)
   0DD3 23                 4169 	inc	hl
   0DD4 56                 4170 	ld	d,(hl)
   0DD5 12                 4171 	ld	(de),a
                           4172 ;	src/food_spirit.c 293
                           4173 ;	genPlus
                           4174 ;	AOP_STK for _set_food_type_f_1_1
                           4175 ;	AOP_STK for _set_food_type_sloc0_1_0
                           4176 ;	genPlusIncr
                           4177 ;	Can't optimise plus by inc, falling back to the normal way
   0DD6 2B                 4178 	dec	hl
   0DD7 5E                 4179 	ld	e,(hl)
   0DD8 23                 4180 	inc	hl
   0DD9 56                 4181 	ld	d,(hl)
   0DDA 21 07 00           4182 	ld	hl,#0x0007
   0DDD 19                 4183 	add	hl,de
   0DDE 7D                 4184 	ld	a,l
   0DDF 54                 4185 	ld	d,h
   0DE0 F8 06              4186 	lda	hl,6(sp)
   0DE2 22                 4187 	ld	(hl+),a
   0DE3 72                 4188 	ld	(hl),d
                           4189 ;	genPlus
                           4190 ;	AOP_STK for _set_food_type_spr_1_1
                           4191 ;	genPlusIncr
                           4192 ;	Can't optimise plus by inc, falling back to the normal way
   0DE4 F8 0A              4193 	lda	hl,10(sp)
   0DE6 7E                 4194 	ld	a,(hl)
   0DE7 C6 06              4195 	add	a,#0x06
                           4196 ;	genAssign (pointer)
                           4197 ;	AOP_STK for _set_food_type_sloc0_1_0
   0DE9 F8 06              4198 	lda	hl,6(sp)
   0DEB 5E                 4199 	ld	e,(hl)
   0DEC 23                 4200 	inc	hl
   0DED 56                 4201 	ld	d,(hl)
   0DEE 12                 4202 	ld	(de),a
                           4203 ;	src/food_spirit.c 294
                           4204 ;	genPlus
                           4205 ;	AOP_STK for _set_food_type_f_1_1
                           4206 ;	AOP_STK for _set_food_type_sloc1_1_0
                           4207 ;	genPlusIncr
                           4208 ;	Can't optimise plus by inc, falling back to the normal way
   0DEF 23                 4209 	inc	hl
   0DF0 5E                 4210 	ld	e,(hl)
   0DF1 23                 4211 	inc	hl
   0DF2 56                 4212 	ld	d,(hl)
   0DF3 21 08 00           4213 	ld	hl,#0x0008
   0DF6 19                 4214 	add	hl,de
   0DF7 7D                 4215 	ld	a,l
   0DF8 54                 4216 	ld	d,h
   0DF9 F8 04              4217 	lda	hl,4(sp)
   0DFB 22                 4218 	ld	(hl+),a
   0DFC 72                 4219 	ld	(hl),d
                           4220 ;	genPlus
                           4221 ;	AOP_STK for _set_food_type_spr_1_1
                           4222 ;	genPlusIncr
                           4223 ;	Can't optimise plus by inc, falling back to the normal way
   0DFD F8 0A              4224 	lda	hl,10(sp)
   0DFF 7E                 4225 	ld	a,(hl)
   0E00 C6 07              4226 	add	a,#0x07
                           4227 ;	genAssign (pointer)
                           4228 ;	AOP_STK for _set_food_type_sloc1_1_0
   0E02 F8 04              4229 	lda	hl,4(sp)
   0E04 5E                 4230 	ld	e,(hl)
   0E05 23                 4231 	inc	hl
   0E06 56                 4232 	ld	d,(hl)
   0E07 12                 4233 	ld	(de),a
                           4234 ;	src/food_spirit.c 295
                           4235 ;	genPlus
                           4236 ;	AOP_STK for _set_food_type_f_1_1
                           4237 ;	AOP_STK for _set_food_type_sloc2_1_0
                           4238 ;	genPlusIncr
                           4239 ;	Can't optimise plus by inc, falling back to the normal way
   0E08 F8 08              4240 	lda	hl,8(sp)
   0E0A 5E                 4241 	ld	e,(hl)
   0E0B 23                 4242 	inc	hl
   0E0C 56                 4243 	ld	d,(hl)
   0E0D 21 09 00           4244 	ld	hl,#0x0009
   0E10 19                 4245 	add	hl,de
   0E11 7D                 4246 	ld	a,l
   0E12 54                 4247 	ld	d,h
   0E13 F8 02              4248 	lda	hl,2(sp)
   0E15 22                 4249 	ld	(hl+),a
   0E16 72                 4250 	ld	(hl),d
                           4251 ;	genPlus
                           4252 ;	AOP_STK for _set_food_type_spr_1_1
                           4253 ;	genPlusIncr
                           4254 ;	Can't optimise plus by inc, falling back to the normal way
   0E17 F8 0A              4255 	lda	hl,10(sp)
   0E19 7E                 4256 	ld	a,(hl)
   0E1A C6 08              4257 	add	a,#0x08
                           4258 ;	genAssign (pointer)
                           4259 ;	AOP_STK for _set_food_type_sloc2_1_0
   0E1C F8 02              4260 	lda	hl,2(sp)
   0E1E 5E                 4261 	ld	e,(hl)
   0E1F 23                 4262 	inc	hl
   0E20 56                 4263 	ld	d,(hl)
   0E21 12                 4264 	ld	(de),a
                           4265 ;	src/food_spirit.c 296
                           4266 ;	genPlus
                           4267 ;	AOP_STK for _set_food_type_f_1_1
                           4268 ;	AOP_STK for _set_food_type_sloc3_1_0
                           4269 ;	genPlusIncr
                           4270 ;	Can't optimise plus by inc, falling back to the normal way
   0E22 F8 08              4271 	lda	hl,8(sp)
   0E24 5E                 4272 	ld	e,(hl)
   0E25 23                 4273 	inc	hl
   0E26 56                 4274 	ld	d,(hl)
   0E27 21 0A 00           4275 	ld	hl,#0x000A
   0E2A 19                 4276 	add	hl,de
   0E2B 7D                 4277 	ld	a,l
   0E2C 54                 4278 	ld	d,h
   0E2D F8 00              4279 	lda	hl,0(sp)
   0E2F 22                 4280 	ld	(hl+),a
   0E30 72                 4281 	ld	(hl),d
                           4282 ;	genPlus
                           4283 ;	AOP_STK for _set_food_type_spr_1_1
                           4284 ;	genPlusIncr
                           4285 ;	Can't optimise plus by inc, falling back to the normal way
   0E31 F8 0A              4286 	lda	hl,10(sp)
   0E33 7E                 4287 	ld	a,(hl)
   0E34 C6 09              4288 	add	a,#0x09
                           4289 ;	genAssign (pointer)
                           4290 ;	AOP_STK for _set_food_type_sloc3_1_0
   0E36 F8 00              4291 	lda	hl,0(sp)
   0E38 5E                 4292 	ld	e,(hl)
   0E39 23                 4293 	inc	hl
   0E3A 56                 4294 	ld	d,(hl)
   0E3B 12                 4295 	ld	(de),a
                           4296 ;	src/food_spirit.c 298
                           4297 ;	genCmpEq
                           4298 ;	AOP_STK for 
                           4299 ; genCmpEq: left 2, right 2, result 0
   0E3C F8 0F              4300 	lda	hl,15(sp)
   0E3E 2A                 4301 	ld	a,(hl+)
   0E3F B6                 4302 	or	a,(hl)
   0E40 C2 D3 0E           4303 	jp	nz,00104$
   0E43 18 03              4304 	jr	00113$
   0E45                    4305 00112$:
   0E45 C3 D3 0E           4306 	jp	00104$
   0E48                    4307 00113$:
                           4308 ;	src/food_spirit.c 299
                           4309 ;	genPointerGet
                           4310 ;	AOP_STK for _set_food_type_sloc0_1_0
   0E48 F8 06              4311 	lda	hl,6(sp)
   0E4A 5E                 4312 	ld	e,(hl)
   0E4B 23                 4313 	inc	hl
   0E4C 56                 4314 	ld	d,(hl)
   0E4D 1A                 4315 	ld	a,(de)
                           4316 ;	genCast
                           4317 ; Removed redundent load
   0E4E 4F                 4318 	ld	c,a
   0E4F 17                 4319 	rla	
   0E50 9F                 4320 	sbc	a,a
   0E51 47                 4321 	ld	b,a
                           4322 ;	genIpush
                           4323 ; _saveRegsForCall: sendSetSize: 0 deInUse: 0 bcInUse: 0 deSending: 0
   0E52 21 91 04           4324 	ld	hl,#_PAL_FOOD_0
   0E55 E5                 4325 	push	hl
                           4326 ;	genIpush
   0E56 21 C9 00           4327 	ld	hl,#_SPR_DAT_FOOD_0_0_0
   0E59 E5                 4328 	push	hl
                           4329 ;	genIpush
   0E5A 21 02 00           4330 	ld	hl,#0x0002
   0E5D E5                 4331 	push	hl
                           4332 ;	genIpush
   0E5E C5                 4333 	push	bc
                           4334 ;	genIpush
                           4335 ;	AOP_STK for _set_food_type_f_1_1
   0E5F F8 10              4336 	lda	hl,16(sp)
   0E61 2A                 4337 	ld	a,(hl+)
   0E62 66                 4338 	ld	h,(hl)
   0E63 6F                 4339 	ld	l,a
   0E64 E5                 4340 	push	hl
                           4341 ;	genCall
   0E65 CD 6E 0D           4342 	call	_set_up_food_sprite
   0E68 E8 0A              4343 	lda	sp,10(sp)
                           4344 ;	src/food_spirit.c 300
                           4345 ;	genPointerGet
                           4346 ;	AOP_STK for _set_food_type_sloc1_1_0
   0E6A F8 04              4347 	lda	hl,4(sp)
   0E6C 5E                 4348 	ld	e,(hl)
   0E6D 23                 4349 	inc	hl
   0E6E 56                 4350 	ld	d,(hl)
   0E6F 1A                 4351 	ld	a,(de)
                           4352 ;	genCast
                           4353 ; Removed redundent load
   0E70 4F                 4354 	ld	c,a
   0E71 17                 4355 	rla	
   0E72 9F                 4356 	sbc	a,a
   0E73 47                 4357 	ld	b,a
                           4358 ;	genIpush
                           4359 ; _saveRegsForCall: sendSetSize: 0 deInUse: 0 bcInUse: 0 deSending: 0
   0E74 21 91 04           4360 	ld	hl,#_PAL_FOOD_0
   0E77 E5                 4361 	push	hl
                           4362 ;	genIpush
   0E78 21 D9 00           4363 	ld	hl,#_SPR_DAT_FOOD_1_0_0
   0E7B E5                 4364 	push	hl
                           4365 ;	genIpush
   0E7C 21 02 00           4366 	ld	hl,#0x0002
   0E7F E5                 4367 	push	hl
                           4368 ;	genIpush
   0E80 C5                 4369 	push	bc
                           4370 ;	genIpush
                           4371 ;	AOP_STK for _set_food_type_f_1_1
   0E81 F8 10              4372 	lda	hl,16(sp)
   0E83 2A                 4373 	ld	a,(hl+)
   0E84 66                 4374 	ld	h,(hl)
   0E85 6F                 4375 	ld	l,a
   0E86 E5                 4376 	push	hl
                           4377 ;	genCall
   0E87 CD 6E 0D           4378 	call	_set_up_food_sprite
   0E8A E8 0A              4379 	lda	sp,10(sp)
                           4380 ;	src/food_spirit.c 301
                           4381 ;	genPointerGet
                           4382 ;	AOP_STK for _set_food_type_sloc2_1_0
   0E8C F8 02              4383 	lda	hl,2(sp)
   0E8E 5E                 4384 	ld	e,(hl)
   0E8F 23                 4385 	inc	hl
   0E90 56                 4386 	ld	d,(hl)
   0E91 1A                 4387 	ld	a,(de)
                           4388 ;	genCast
                           4389 ; Removed redundent load
   0E92 4F                 4390 	ld	c,a
   0E93 17                 4391 	rla	
   0E94 9F                 4392 	sbc	a,a
   0E95 47                 4393 	ld	b,a
                           4394 ;	genIpush
                           4395 ; _saveRegsForCall: sendSetSize: 0 deInUse: 0 bcInUse: 0 deSending: 0
   0E96 21 91 04           4396 	ld	hl,#_PAL_FOOD_0
   0E99 E5                 4397 	push	hl
                           4398 ;	genIpush
   0E9A 21 E9 00           4399 	ld	hl,#_SPR_DAT_FOOD_0_1_0
   0E9D E5                 4400 	push	hl
                           4401 ;	genIpush
   0E9E 21 02 00           4402 	ld	hl,#0x0002
   0EA1 E5                 4403 	push	hl
                           4404 ;	genIpush
   0EA2 C5                 4405 	push	bc
                           4406 ;	genIpush
                           4407 ;	AOP_STK for _set_food_type_f_1_1
   0EA3 F8 10              4408 	lda	hl,16(sp)
   0EA5 2A                 4409 	ld	a,(hl+)
   0EA6 66                 4410 	ld	h,(hl)
   0EA7 6F                 4411 	ld	l,a
   0EA8 E5                 4412 	push	hl
                           4413 ;	genCall
   0EA9 CD 6E 0D           4414 	call	_set_up_food_sprite
   0EAC E8 0A              4415 	lda	sp,10(sp)
                           4416 ;	src/food_spirit.c 302
                           4417 ;	genPointerGet
                           4418 ;	AOP_STK for _set_food_type_sloc3_1_0
   0EAE F8 00              4419 	lda	hl,0(sp)
   0EB0 5E                 4420 	ld	e,(hl)
   0EB1 23                 4421 	inc	hl
   0EB2 56                 4422 	ld	d,(hl)
   0EB3 1A                 4423 	ld	a,(de)
                           4424 ;	genCast
                           4425 ; Removed redundent load
   0EB4 4F                 4426 	ld	c,a
   0EB5 17                 4427 	rla	
   0EB6 9F                 4428 	sbc	a,a
   0EB7 47                 4429 	ld	b,a
                           4430 ;	genIpush
                           4431 ; _saveRegsForCall: sendSetSize: 0 deInUse: 0 bcInUse: 0 deSending: 0
   0EB8 21 91 04           4432 	ld	hl,#_PAL_FOOD_0
   0EBB E5                 4433 	push	hl
                           4434 ;	genIpush
   0EBC 21 F9 00           4435 	ld	hl,#_SPR_DAT_FOOD_1_1_0
   0EBF E5                 4436 	push	hl
                           4437 ;	genIpush
   0EC0 21 02 00           4438 	ld	hl,#0x0002
   0EC3 E5                 4439 	push	hl
                           4440 ;	genIpush
   0EC4 C5                 4441 	push	bc
                           4442 ;	genIpush
                           4443 ;	AOP_STK for _set_food_type_f_1_1
   0EC5 F8 10              4444 	lda	hl,16(sp)
   0EC7 2A                 4445 	ld	a,(hl+)
   0EC8 66                 4446 	ld	h,(hl)
   0EC9 6F                 4447 	ld	l,a
   0ECA E5                 4448 	push	hl
                           4449 ;	genCall
   0ECB CD 6E 0D           4450 	call	_set_up_food_sprite
   0ECE E8 0A              4451 	lda	sp,10(sp)
                           4452 ;	genGoto
   0ED0 C3 6E 0F           4453 	jp	00106$
                           4454 ;	genLabel
   0ED3                    4455 00104$:
                           4456 ;	src/food_spirit.c 303
                           4457 ;	genCmpEq
                           4458 ;	AOP_STK for 
                           4459 ; genCmpEq: left 2, right 2, result 0
   0ED3 F8 0F              4460 	lda	hl,15(sp)
   0ED5 7E                 4461 	ld	a,(hl)
   0ED6 FE 01              4462 	cp	a,#0x01
   0ED8 C2 E3 0E           4463 	jp	nz,00114$
   0EDB 23                 4464 	inc	hl
   0EDC 7E                 4465 	ld	a,(hl)
   0EDD B7                 4466 	or	a,a
   0EDE C2 6E 0F           4467 	jp	nz,00106$
   0EE1 18 03              4468 	jr	00115$
   0EE3                    4469 00114$:
   0EE3 C3 6E 0F           4470 	jp	00106$
   0EE6                    4471 00115$:
                           4472 ;	src/food_spirit.c 304
                           4473 ;	genPointerGet
                           4474 ;	AOP_STK for _set_food_type_sloc0_1_0
   0EE6 F8 06              4475 	lda	hl,6(sp)
   0EE8 5E                 4476 	ld	e,(hl)
   0EE9 23                 4477 	inc	hl
   0EEA 56                 4478 	ld	d,(hl)
   0EEB 1A                 4479 	ld	a,(de)
                           4480 ;	genCast
                           4481 ; Removed redundent load
   0EEC 4F                 4482 	ld	c,a
   0EED 17                 4483 	rla	
   0EEE 9F                 4484 	sbc	a,a
   0EEF 47                 4485 	ld	b,a
                           4486 ;	genIpush
                           4487 ; _saveRegsForCall: sendSetSize: 0 deInUse: 0 bcInUse: 0 deSending: 0
   0EF0 21 91 04           4488 	ld	hl,#_PAL_FOOD_0
   0EF3 E5                 4489 	push	hl
                           4490 ;	genIpush
   0EF4 21 09 01           4491 	ld	hl,#_SPR_DAT_FOOD_0_0_1
   0EF7 E5                 4492 	push	hl
                           4493 ;	genIpush
   0EF8 21 02 00           4494 	ld	hl,#0x0002
   0EFB E5                 4495 	push	hl
                           4496 ;	genIpush
   0EFC C5                 4497 	push	bc
                           4498 ;	genIpush
                           4499 ;	AOP_STK for _set_food_type_f_1_1
   0EFD F8 10              4500 	lda	hl,16(sp)
   0EFF 2A                 4501 	ld	a,(hl+)
   0F00 66                 4502 	ld	h,(hl)
   0F01 6F                 4503 	ld	l,a
   0F02 E5                 4504 	push	hl
                           4505 ;	genCall
   0F03 CD 6E 0D           4506 	call	_set_up_food_sprite
   0F06 E8 0A              4507 	lda	sp,10(sp)
                           4508 ;	src/food_spirit.c 305
                           4509 ;	genPointerGet
                           4510 ;	AOP_STK for _set_food_type_sloc1_1_0
   0F08 F8 04              4511 	lda	hl,4(sp)
   0F0A 5E                 4512 	ld	e,(hl)
   0F0B 23                 4513 	inc	hl
   0F0C 56                 4514 	ld	d,(hl)
   0F0D 1A                 4515 	ld	a,(de)
                           4516 ;	genCast
                           4517 ; Removed redundent load
   0F0E 4F                 4518 	ld	c,a
   0F0F 17                 4519 	rla	
   0F10 9F                 4520 	sbc	a,a
   0F11 47                 4521 	ld	b,a
                           4522 ;	genIpush
                           4523 ; _saveRegsForCall: sendSetSize: 0 deInUse: 0 bcInUse: 0 deSending: 0
   0F12 21 91 04           4524 	ld	hl,#_PAL_FOOD_0
   0F15 E5                 4525 	push	hl
                           4526 ;	genIpush
   0F16 21 19 01           4527 	ld	hl,#_SPR_DAT_FOOD_1_0_1
   0F19 E5                 4528 	push	hl
                           4529 ;	genIpush
   0F1A 21 02 00           4530 	ld	hl,#0x0002
   0F1D E5                 4531 	push	hl
                           4532 ;	genIpush
   0F1E C5                 4533 	push	bc
                           4534 ;	genIpush
                           4535 ;	AOP_STK for _set_food_type_f_1_1
   0F1F F8 10              4536 	lda	hl,16(sp)
   0F21 2A                 4537 	ld	a,(hl+)
   0F22 66                 4538 	ld	h,(hl)
   0F23 6F                 4539 	ld	l,a
   0F24 E5                 4540 	push	hl
                           4541 ;	genCall
   0F25 CD 6E 0D           4542 	call	_set_up_food_sprite
   0F28 E8 0A              4543 	lda	sp,10(sp)
                           4544 ;	src/food_spirit.c 306
                           4545 ;	genPointerGet
                           4546 ;	AOP_STK for _set_food_type_sloc2_1_0
   0F2A F8 02              4547 	lda	hl,2(sp)
   0F2C 5E                 4548 	ld	e,(hl)
   0F2D 23                 4549 	inc	hl
   0F2E 56                 4550 	ld	d,(hl)
   0F2F 1A                 4551 	ld	a,(de)
                           4552 ;	genCast
                           4553 ; Removed redundent load
   0F30 4F                 4554 	ld	c,a
   0F31 17                 4555 	rla	
   0F32 9F                 4556 	sbc	a,a
   0F33 47                 4557 	ld	b,a
                           4558 ;	genIpush
                           4559 ; _saveRegsForCall: sendSetSize: 0 deInUse: 0 bcInUse: 0 deSending: 0
   0F34 21 91 04           4560 	ld	hl,#_PAL_FOOD_0
   0F37 E5                 4561 	push	hl
                           4562 ;	genIpush
   0F38 21 29 01           4563 	ld	hl,#_SPR_DAT_FOOD_0_1_1
   0F3B E5                 4564 	push	hl
                           4565 ;	genIpush
   0F3C 21 02 00           4566 	ld	hl,#0x0002
   0F3F E5                 4567 	push	hl
                           4568 ;	genIpush
   0F40 C5                 4569 	push	bc
                           4570 ;	genIpush
                           4571 ;	AOP_STK for _set_food_type_f_1_1
   0F41 F8 10              4572 	lda	hl,16(sp)
   0F43 2A                 4573 	ld	a,(hl+)
   0F44 66                 4574 	ld	h,(hl)
   0F45 6F                 4575 	ld	l,a
   0F46 E5                 4576 	push	hl
                           4577 ;	genCall
   0F47 CD 6E 0D           4578 	call	_set_up_food_sprite
   0F4A E8 0A              4579 	lda	sp,10(sp)
                           4580 ;	src/food_spirit.c 307
                           4581 ;	genPointerGet
                           4582 ;	AOP_STK for _set_food_type_sloc3_1_0
   0F4C F8 00              4583 	lda	hl,0(sp)
   0F4E 5E                 4584 	ld	e,(hl)
   0F4F 23                 4585 	inc	hl
   0F50 56                 4586 	ld	d,(hl)
   0F51 1A                 4587 	ld	a,(de)
                           4588 ;	genCast
                           4589 ; Removed redundent load
   0F52 4F                 4590 	ld	c,a
   0F53 17                 4591 	rla	
   0F54 9F                 4592 	sbc	a,a
   0F55 47                 4593 	ld	b,a
                           4594 ;	genIpush
                           4595 ; _saveRegsForCall: sendSetSize: 0 deInUse: 0 bcInUse: 0 deSending: 0
   0F56 21 91 04           4596 	ld	hl,#_PAL_FOOD_0
   0F59 E5                 4597 	push	hl
                           4598 ;	genIpush
   0F5A 21 39 01           4599 	ld	hl,#_SPR_DAT_FOOD_1_1_1
   0F5D E5                 4600 	push	hl
                           4601 ;	genIpush
   0F5E 21 02 00           4602 	ld	hl,#0x0002
   0F61 E5                 4603 	push	hl
                           4604 ;	genIpush
   0F62 C5                 4605 	push	bc
                           4606 ;	genIpush
                           4607 ;	AOP_STK for _set_food_type_f_1_1
   0F63 F8 10              4608 	lda	hl,16(sp)
   0F65 2A                 4609 	ld	a,(hl+)
   0F66 66                 4610 	ld	h,(hl)
   0F67 6F                 4611 	ld	l,a
   0F68 E5                 4612 	push	hl
                           4613 ;	genCall
   0F69 CD 6E 0D           4614 	call	_set_up_food_sprite
   0F6C E8 0A              4615 	lda	sp,10(sp)
                           4616 ;	genLabel
   0F6E                    4617 00106$:
                           4618 ;	genEndFunction
   0F6E E8 0B              4619 	lda	sp,11(sp)
   0F70 C9                 4620 	ret
   0F71                    4621 ___set_food_type_end:
                           4622 ;	src/food_spirit.c 311
                           4623 ;	genLabel
                           4624 ;	genFunction
                           4625 ;	---------------------------------
                           4626 ; Function init_food
                           4627 ; ---------------------------------
   0F71                    4628 ___init_food_start:
   0F71                    4629 _init_food:
   0F71 E8 FE              4630 	lda	sp,-2(sp)
                           4631 ;	src/food_spirit.c 313
                           4632 ;	genMult
                           4633 ;	AOP_STK for 
   0F73 F8 04              4634 	lda	hl,4(sp)
   0F75 5E                 4635 	ld	e,(hl)
   0F76 23                 4636 	inc	hl
   0F77 56                 4637 	ld	d,(hl)
   0F78 6B                 4638 	ld	l,e
   0F79 62                 4639 	ld	h,d
   0F7A 29                 4640 	add	hl,hl
   0F7B 29                 4641 	add	hl,hl
   0F7C 19                 4642 	add	hl,de
   0F7D 29                 4643 	add	hl,hl
   0F7E 19                 4644 	add	hl,de
   0F7F 4D                 4645 	ld	c,l
   0F80 44                 4646 	ld	b,h
                           4647 ;	genPlus
                           4648 ;	Can't optimise plus by inc, falling back to the normal way
   0F81 21 07 00           4649 	ld	hl,#_foods
   0F84 09                 4650 	add	hl,bc
   0F85 4D                 4651 	ld	c,l
   0F86 44                 4652 	ld	b,h
                           4653 ;	genAssign
                           4654 ;	(registers are the same)
                           4655 ;	src/food_spirit.c 315
                           4656 ;	genPlus
                           4657 ;	AOP_STK for _init_food_sloc0_1_0
                           4658 ;	genPlusIncr
                           4659 ;	Can't optimise plus by inc, falling back to the normal way
   0F87 21 01 00           4660 	ld	hl,#0x0001
   0F8A 09                 4661 	add	hl,bc
   0F8B 7D                 4662 	ld	a,l
   0F8C 54                 4663 	ld	d,h
   0F8D F8 00              4664 	lda	hl,0(sp)
   0F8F 22                 4665 	ld	(hl+),a
   0F90 72                 4666 	ld	(hl),d
                           4667 ;	genCast
                           4668 ;	AOP_STK for 
   0F91 F8 08              4669 	lda	hl,8(sp)
   0F93 7E                 4670 	ld	a,(hl)
                           4671 ;	genAssign (pointer)
                           4672 ;	AOP_STK for _init_food_sloc0_1_0
   0F94 F8 00              4673 	lda	hl,0(sp)
   0F96 5E                 4674 	ld	e,(hl)
   0F97 23                 4675 	inc	hl
   0F98 56                 4676 	ld	d,(hl)
   0F99 12                 4677 	ld	(de),a
                           4678 ;	src/food_spirit.c 316
                           4679 ;	genPlus
                           4680 ;	AOP_STK for _init_food_sloc0_1_0
                           4681 ;	genPlusIncr
                           4682 ;	Can't optimise plus by inc, falling back to the normal way
   0F9A 21 02 00           4683 	ld	hl,#0x0002
   0F9D 09                 4684 	add	hl,bc
   0F9E 7D                 4685 	ld	a,l
   0F9F 54                 4686 	ld	d,h
   0FA0 F8 00              4687 	lda	hl,0(sp)
   0FA2 22                 4688 	ld	(hl+),a
   0FA3 72                 4689 	ld	(hl),d
                           4690 ;	genCast
                           4691 ;	AOP_STK for 
   0FA4 F8 0A              4692 	lda	hl,10(sp)
   0FA6 7E                 4693 	ld	a,(hl)
                           4694 ;	genAssign (pointer)
                           4695 ;	AOP_STK for _init_food_sloc0_1_0
   0FA7 F8 00              4696 	lda	hl,0(sp)
   0FA9 5E                 4697 	ld	e,(hl)
   0FAA 23                 4698 	inc	hl
   0FAB 56                 4699 	ld	d,(hl)
   0FAC 12                 4700 	ld	(de),a
                           4701 ;	src/food_spirit.c 318
                           4702 ;	genPlus
                           4703 ;	genPlusIncr
   0FAD 21 03 00           4704 	ld	hl,#0x0003
   0FB0 09                 4705 	add	hl,bc
                           4706 ;	genAssign (pointer)
   0FB1 36 04              4707 	ld	(hl),#0x04
                           4708 ;	src/food_spirit.c 319
                           4709 ;	genPlus
                           4710 ;	genPlusIncr
   0FB3 21 04 00           4711 	ld	hl,#0x0004
   0FB6 09                 4712 	add	hl,bc
                           4713 ;	genAssign (pointer)
   0FB7 36 03              4714 	ld	(hl),#0x03
                           4715 ;	src/food_spirit.c 321
                           4716 ;	genPlus
                           4717 ;	genPlusIncr
   0FB9 03                 4718 	inc	bc
   0FBA 03                 4719 	inc	bc
   0FBB 03                 4720 	inc	bc
   0FBC 03                 4721 	inc	bc
   0FBD 03                 4722 	inc	bc
                           4723 ;	genCast
                           4724 ;	AOP_STK for 
   0FBE F8 0C              4725 	lda	hl,12(sp)
   0FC0 7E                 4726 	ld	a,(hl)
                           4727 ;	genAssign (pointer)
   0FC1 02                 4728 	ld	(bc),a
                           4729 ;	src/food_spirit.c 323
                           4730 ;	genIpush
                           4731 ; _saveRegsForCall: sendSetSize: 0 deInUse: 0 bcInUse: 0 deSending: 0
                           4732 ;	AOP_STK for 
   0FC2 F8 06              4733 	lda	hl,6(sp)
   0FC4 2A                 4734 	ld	a,(hl+)
   0FC5 66                 4735 	ld	h,(hl)
   0FC6 6F                 4736 	ld	l,a
   0FC7 E5                 4737 	push	hl
                           4738 ;	genIpush
                           4739 ;	AOP_STK for 
   0FC8 F8 06              4740 	lda	hl,6(sp)
   0FCA 2A                 4741 	ld	a,(hl+)
   0FCB 66                 4742 	ld	h,(hl)
   0FCC 6F                 4743 	ld	l,a
   0FCD E5                 4744 	push	hl
                           4745 ;	genCall
   0FCE CD 9D 0D           4746 	call	_set_food_type
   0FD1 E8 04              4747 	lda	sp,4(sp)
                           4748 ;	genLabel
   0FD3                    4749 00101$:
                           4750 ;	genEndFunction
   0FD3 E8 02              4751 	lda	sp,2(sp)
   0FD5 C9                 4752 	ret
   0FD6                    4753 ___init_food_end:
                           4754 ;	src/food_spirit.c 326
                           4755 ;	genLabel
                           4756 ;	genFunction
                           4757 ;	---------------------------------
                           4758 ; Function init_foods
                           4759 ; ---------------------------------
   0FD6                    4760 ___init_foods_start:
   0FD6                    4761 _init_foods:
   0FD6 E8 FE              4762 	lda	sp,-2(sp)
                           4763 ;	src/food_spirit.c 329
                           4764 ;	genIpush
                           4765 ; _saveRegsForCall: sendSetSize: 0 deInUse: 0 bcInUse: 0 deSending: 0
   0FD8 21 89 04           4766 	ld	hl,#_PAL_FOOD_TOUCH
   0FDB E5                 4767 	push	hl
                           4768 ;	genIpush
   0FDC 21 01 01           4769 	ld	hl,#0x0101
   0FDF E5                 4770 	push	hl
                           4771 ;	genCall
   0FE0 CD 00 00           4772 	call	_set_sprite_palette
   0FE3 E8 04              4773 	lda	sp,4(sp)
                           4774 ;	src/food_spirit.c 331
                           4775 ;	genAssign
   0FE5 0E 00              4776 	ld	c,#0x00
                           4777 ;	genLabel
   0FE7                    4778 00101$:
                           4779 ;	genCmpLt
   0FE7 79                 4780 	ld	a,c
   0FE8 FE 08              4781 	cp	#0x08
   0FEA D2 17 10           4782 	jp	nc,00105$
                           4783 ;	src/food_spirit.c 332
                           4784 ;	genCast
                           4785 ;	AOP_STK for _init_foods_sloc0_1_0
   0FED F8 00              4786 	lda	hl,0(sp)
   0FEF 71                 4787 	ld	(hl),c
   0FF0 79                 4788 	ld	a,c
   0FF1 17                 4789 	rla	
   0FF2 9F                 4790 	sbc	a,a
   0FF3 23                 4791 	inc	hl
   0FF4 77                 4792 	ld	(hl),a
                           4793 ;	genIpush
                           4794 ; _saveRegsForCall: sendSetSize: 0 deInUse: 0 bcInUse: 1 deSending: 0
   0FF5 C5                 4795 	push	bc
   0FF6 21 01 00           4796 	ld	hl,#0x0001
   0FF9 E5                 4797 	push	hl
                           4798 ;	genIpush
   0FFA 21 00 00           4799 	ld	hl,#0x0000
   0FFD E5                 4800 	push	hl
                           4801 ;	genIpush
   0FFE 21 00 00           4802 	ld	hl,#0x0000
   1001 E5                 4803 	push	hl
                           4804 ;	genIpush
   1002 21 00 00           4805 	ld	hl,#0x0000
   1005 E5                 4806 	push	hl
                           4807 ;	genIpush
                           4808 ;	AOP_STK for _init_foods_sloc0_1_0
   1006 F8 0A              4809 	lda	hl,10(sp)
   1008 2A                 4810 	ld	a,(hl+)
   1009 66                 4811 	ld	h,(hl)
   100A 6F                 4812 	ld	l,a
   100B E5                 4813 	push	hl
                           4814 ;	genCall
   100C CD 71 0F           4815 	call	_init_food
   100F E8 0A              4816 	lda	sp,10(sp)
   1011 E1                 4817 	pop	hl
   1012 4D                 4818 	ld	c,l
                           4819 ;	src/food_spirit.c 331
                           4820 ;	genPlus
                           4821 ;	genPlusIncr
                           4822 ; Removed redundent load
   1013 0C                 4823 	inc	c
                           4824 ;	genGoto
   1014 C3 E7 0F           4825 	jp	00101$
                           4826 ;	genLabel
   1017                    4827 00105$:
                           4828 ;	genEndFunction
   1017 E8 02              4829 	lda	sp,2(sp)
   1019 C9                 4830 	ret
   101A                    4831 ___init_foods_end:
                           4832 ;	src/food_spirit.c 336
                           4833 ;	genLabel
                           4834 ;	genFunction
                           4835 ;	---------------------------------
                           4836 ; Function init_bg
                           4837 ; ---------------------------------
   101A                    4838 ___init_bg_start:
   101A                    4839 _init_bg:
                           4840 	
                           4841 ;	src/food_spirit.c 337
                           4842 ;	genIpush
                           4843 ; _saveRegsForCall: sendSetSize: 0 deInUse: 0 bcInUse: 0 deSending: 0
   101A 21 99 04           4844 	ld	hl,#_PAL_BG_SPOTS
   101D E5                 4845 	push	hl
                           4846 ;	genIpush
   101E 21 01 01           4847 	ld	hl,#0x0101
   1021 E5                 4848 	push	hl
                           4849 ;	genCall
   1022 CD 00 00           4850 	call	_set_bkg_palette
   1025 E8 04              4851 	lda	sp,4(sp)
                           4852 ;	src/food_spirit.c 338
                           4853 ;	genIpush
                           4854 ; _saveRegsForCall: sendSetSize: 0 deInUse: 0 bcInUse: 0 deSending: 0
   1027 21 A1 04           4855 	ld	hl,#_PAL_BG_POT
   102A E5                 4856 	push	hl
                           4857 ;	genIpush
   102B 21 02 01           4858 	ld	hl,#0x0102
   102E E5                 4859 	push	hl
                           4860 ;	genCall
   102F CD 00 00           4861 	call	_set_bkg_palette
   1032 E8 04              4862 	lda	sp,4(sp)
                           4863 ;	src/food_spirit.c 339
                           4864 ;	genIpush
                           4865 ; _saveRegsForCall: sendSetSize: 0 deInUse: 0 bcInUse: 0 deSending: 0
   1034 21 C1 04           4866 	ld	hl,#_PAL_BG_FIRE
   1037 E5                 4867 	push	hl
                           4868 ;	genIpush
   1038 21 03 01           4869 	ld	hl,#0x0103
   103B E5                 4870 	push	hl
                           4871 ;	genCall
   103C CD 00 00           4872 	call	_set_bkg_palette
   103F E8 04              4873 	lda	sp,4(sp)
                           4874 ;	src/food_spirit.c 340
                           4875 ;	genIpush
                           4876 ; _saveRegsForCall: sendSetSize: 0 deInUse: 0 bcInUse: 0 deSending: 0
   1041 21 A9 04           4877 	ld	hl,#_PAL_BG_POT_DARK
   1044 E5                 4878 	push	hl
                           4879 ;	genIpush
   1045 21 04 01           4880 	ld	hl,#0x0104
   1048 E5                 4881 	push	hl
                           4882 ;	genCall
   1049 CD 00 00           4883 	call	_set_bkg_palette
   104C E8 04              4884 	lda	sp,4(sp)
                           4885 ;	src/food_spirit.c 341
                           4886 ;	genIpush
                           4887 ; _saveRegsForCall: sendSetSize: 0 deInUse: 0 bcInUse: 0 deSending: 0
   104E 21 B1 04           4888 	ld	hl,#_PAL_BG_POT_DARK_2
   1051 E5                 4889 	push	hl
                           4890 ;	genIpush
   1052 21 05 01           4891 	ld	hl,#0x0105
   1055 E5                 4892 	push	hl
                           4893 ;	genCall
   1056 CD 00 00           4894 	call	_set_bkg_palette
   1059 E8 04              4895 	lda	sp,4(sp)
                           4896 ;	src/food_spirit.c 342
                           4897 ;	genIpush
                           4898 ; _saveRegsForCall: sendSetSize: 0 deInUse: 0 bcInUse: 0 deSending: 0
   105B 21 B9 04           4899 	ld	hl,#_PAL_BG_POT_DARK_3
   105E E5                 4900 	push	hl
                           4901 ;	genIpush
   105F 21 06 01           4902 	ld	hl,#0x0106
   1062 E5                 4903 	push	hl
                           4904 ;	genCall
   1063 CD 00 00           4905 	call	_set_bkg_palette
   1066 E8 04              4906 	lda	sp,4(sp)
                           4907 ;	src/food_spirit.c 344
                           4908 ;	genIpush
                           4909 ; _saveRegsForCall: sendSetSize: 0 deInUse: 0 bcInUse: 0 deSending: 0
   1068 21 69 01           4910 	ld	hl,#_TILE_SPOTS
   106B E5                 4911 	push	hl
                           4912 ;	genIpush
   106C 21 01 01           4913 	ld	hl,#0x0101
   106F E5                 4914 	push	hl
                           4915 ;	genCall
   1070 CD 00 00           4916 	call	_set_bkg_data
   1073 E8 04              4917 	lda	sp,4(sp)
                           4918 ;	src/food_spirit.c 345
                           4919 ;	genIpush
                           4920 ; _saveRegsForCall: sendSetSize: 0 deInUse: 0 bcInUse: 0 deSending: 0
   1075 21 79 01           4921 	ld	hl,#_TILE_POT_FLOOR
   1078 E5                 4922 	push	hl
                           4923 ;	genIpush
   1079 21 02 01           4924 	ld	hl,#0x0102
   107C E5                 4925 	push	hl
                           4926 ;	genCall
   107D CD 00 00           4927 	call	_set_bkg_data
   1080 E8 04              4928 	lda	sp,4(sp)
                           4929 ;	src/food_spirit.c 346
                           4930 ;	genIpush
                           4931 ; _saveRegsForCall: sendSetSize: 0 deInUse: 0 bcInUse: 0 deSending: 0
   1082 21 89 01           4932 	ld	hl,#_TILE_POT_LEFT_CORNER
   1085 E5                 4933 	push	hl
                           4934 ;	genIpush
   1086 21 03 01           4935 	ld	hl,#0x0103
   1089 E5                 4936 	push	hl
                           4937 ;	genCall
   108A CD 00 00           4938 	call	_set_bkg_data
   108D E8 04              4939 	lda	sp,4(sp)
                           4940 ;	src/food_spirit.c 347
                           4941 ;	genIpush
                           4942 ; _saveRegsForCall: sendSetSize: 0 deInUse: 0 bcInUse: 0 deSending: 0
   108F 21 99 01           4943 	ld	hl,#_TILE_POT_RIGHT_CORNER
   1092 E5                 4944 	push	hl
                           4945 ;	genIpush
   1093 21 04 01           4946 	ld	hl,#0x0104
   1096 E5                 4947 	push	hl
                           4948 ;	genCall
   1097 CD 00 00           4949 	call	_set_bkg_data
   109A E8 04              4950 	lda	sp,4(sp)
                           4951 ;	src/food_spirit.c 348
                           4952 ;	genIpush
                           4953 ; _saveRegsForCall: sendSetSize: 0 deInUse: 0 bcInUse: 0 deSending: 0
   109C 21 A9 01           4954 	ld	hl,#_TILE_POT_LEFT_WALL
   109F E5                 4955 	push	hl
                           4956 ;	genIpush
   10A0 21 05 01           4957 	ld	hl,#0x0105
   10A3 E5                 4958 	push	hl
                           4959 ;	genCall
   10A4 CD 00 00           4960 	call	_set_bkg_data
   10A7 E8 04              4961 	lda	sp,4(sp)
                           4962 ;	src/food_spirit.c 349
                           4963 ;	genIpush
                           4964 ; _saveRegsForCall: sendSetSize: 0 deInUse: 0 bcInUse: 0 deSending: 0
   10A9 21 B9 01           4965 	ld	hl,#_TILE_POT_RIGHT_WALL
   10AC E5                 4966 	push	hl
                           4967 ;	genIpush
   10AD 21 06 01           4968 	ld	hl,#0x0106
   10B0 E5                 4969 	push	hl
                           4970 ;	genCall
   10B1 CD 00 00           4971 	call	_set_bkg_data
   10B4 E8 04              4972 	lda	sp,4(sp)
                           4973 ;	src/food_spirit.c 350
                           4974 ;	genIpush
                           4975 ; _saveRegsForCall: sendSetSize: 0 deInUse: 0 bcInUse: 0 deSending: 0
   10B6 21 C9 01           4976 	ld	hl,#_TILE_FIRE
   10B9 E5                 4977 	push	hl
                           4978 ;	genIpush
   10BA 21 07 01           4979 	ld	hl,#0x0107
   10BD E5                 4980 	push	hl
                           4981 ;	genCall
   10BE CD 00 00           4982 	call	_set_bkg_data
   10C1 E8 04              4983 	lda	sp,4(sp)
                           4984 ;	src/food_spirit.c 351
                           4985 ;	genIpush
                           4986 ; _saveRegsForCall: sendSetSize: 0 deInUse: 0 bcInUse: 0 deSending: 0
   10C3 21 59 01           4987 	ld	hl,#_TILE_BLANK_LIGHT
   10C6 E5                 4988 	push	hl
                           4989 ;	genIpush
   10C7 21 08 01           4990 	ld	hl,#0x0108
   10CA E5                 4991 	push	hl
                           4992 ;	genCall
   10CB CD 00 00           4993 	call	_set_bkg_data
   10CE E8 04              4994 	lda	sp,4(sp)
                           4995 ;	src/food_spirit.c 353
                           4996 ;	genIpush
                           4997 ; _saveRegsForCall: sendSetSize: 0 deInUse: 0 bcInUse: 0 deSending: 0
   10D0 21 2D 03           4998 	ld	hl,#_MAP_PAL_BG_1
   10D3 E5                 4999 	push	hl
                           5000 ;	genIpush
   10D4 21 D9 01           5001 	ld	hl,#_MAP_BG_1
   10D7 E5                 5002 	push	hl
                           5003 ;	genIpush
   10D8 21 11 00           5004 	ld	hl,#0x0011
   10DB E5                 5005 	push	hl
                           5006 ;	genIpush
   10DC 21 14 00           5007 	ld	hl,#0x0014
   10DF E5                 5008 	push	hl
                           5009 ;	genIpush
   10E0 21 01 00           5010 	ld	hl,#0x0001
   10E3 E5                 5011 	push	hl
                           5012 ;	genIpush
   10E4 21 00 00           5013 	ld	hl,#0x0000
   10E7 E5                 5014 	push	hl
                           5015 ;	genCall
   10E8 CD 00 00           5016 	call	_set_up_bg
   10EB E8 0C              5017 	lda	sp,12(sp)
                           5018 ;	genLabel
   10ED                    5019 00101$:
                           5020 ;	genEndFunction
                           5021 	
   10ED C9                 5022 	ret
   10EE                    5023 ___init_bg_end:
                           5024 ;	src/food_spirit.c 356
                           5025 ;	genLabel
                           5026 ;	genFunction
                           5027 ;	---------------------------------
                           5028 ; Function game_loop
                           5029 ; ---------------------------------
   10EE                    5030 ___game_loop_start:
   10EE                    5031 _game_loop:
                           5032 	
                           5033 ;	src/food_spirit.c 357
                           5034 ;	genCall
                           5035 ; _saveRegsForCall: sendSetSize: 0 deInUse: 0 bcInUse: 0 deSending: 0
   10EE CD 00 00           5036 	call	_read_controls
                           5037 ;	src/food_spirit.c 359
                           5038 ;	genCall
                           5039 ; _saveRegsForCall: sendSetSize: 0 deInUse: 0 bcInUse: 0 deSending: 0
   10F1 CD 80 0A           5040 	call	_player_jump_and_gravity
                           5041 ;	src/food_spirit.c 360
                           5042 ;	genCall
                           5043 ; _saveRegsForCall: sendSetSize: 0 deInUse: 0 bcInUse: 0 deSending: 0
   10F4 CD 3D 0B           5044 	call	_draw_player
                           5045 ;	src/food_spirit.c 362
                           5046 ;	genCall
                           5047 ; _saveRegsForCall: sendSetSize: 0 deInUse: 0 bcInUse: 0 deSending: 0
   10F7 CD B6 06           5048 	call	_food_logic
                           5049 ;	src/food_spirit.c 363
                           5050 ;	genCall
                           5051 ; _saveRegsForCall: sendSetSize: 0 deInUse: 0 bcInUse: 0 deSending: 0
   10FA CD DC 0B           5052 	call	_draw_foods
                           5053 ;	genLabel
   10FD                    5054 00101$:
                           5055 ;	genEndFunction
                           5056 	
   10FD C9                 5057 	ret
   10FE                    5058 ___game_loop_end:
                           5059 ;	src/food_spirit.c 366
                           5060 ;	genLabel
                           5061 ;	genFunction
                           5062 ;	---------------------------------
                           5063 ; Function initialize
                           5064 ; ---------------------------------
   10FE                    5065 ___initialize_start:
   10FE                    5066 _initialize:
   10FE E8 FD              5067 	lda	sp,-3(sp)
                           5068 ;	src/food_spirit.c 367
                           5069 ;	genCall
                           5070 ; _saveRegsForCall: sendSetSize: 0 deInUse: 0 bcInUse: 0 deSending: 0
   1100 CD 00 00           5071 	call	_cgb_compatibility
                           5072 ;	src/food_spirit.c 368
                           5073 ;	genCall
                           5074 ; _saveRegsForCall: sendSetSize: 0 deInUse: 0 bcInUse: 0 deSending: 0
   1103 CD 00 00           5075 	call	_pre_init_rand
                           5076 ;	src/food_spirit.c 370
                           5077 ;	genCall
                           5078 ; _saveRegsForCall: sendSetSize: 0 deInUse: 0 bcInUse: 0 deSending: 0
   1106 CD 1A 10           5079 	call	_init_bg
                           5080 ;	src/food_spirit.c 371
                           5081 ;	genCall
                           5082 ; _saveRegsForCall: sendSetSize: 0 deInUse: 0 bcInUse: 0 deSending: 0
   1109 CD D3 0C           5083 	call	_init_player
                           5084 ;	src/food_spirit.c 372
                           5085 ;	genCall
                           5086 ; _saveRegsForCall: sendSetSize: 0 deInUse: 0 bcInUse: 0 deSending: 0
   110C CD D6 0F           5087 	call	_init_foods
                           5088 ;	src/food_spirit.c 375
                           5089 ;	genIpush
                           5090 ; _saveRegsForCall: sendSetSize: 0 deInUse: 0 bcInUse: 0 deSending: 0
   110F 21 00 00           5091 	ld	hl,#0x0000
   1112 E5                 5092 	push	hl
                           5093 ;	genIpush
   1113 21 1F 00           5094 	ld	hl,#0x001F
   1116 E5                 5095 	push	hl
                           5096 ;	genIpush
   1117 21 50 00           5097 	ld	hl,#0x0050
   111A E5                 5098 	push	hl
                           5099 ;	genIpush
   111B 21 00 00           5100 	ld	hl,#0x0000
   111E E5                 5101 	push	hl
                           5102 ;	genIpush
   111F 21 00 00           5103 	ld	hl,#0x0000
   1122 E5                 5104 	push	hl
                           5105 ;	genCall
   1123 CD 71 0F           5106 	call	_init_food
   1126 E8 0A              5107 	lda	sp,10(sp)
                           5108 ;	src/food_spirit.c 376
                           5109 ;	genIpush
                           5110 ; _saveRegsForCall: sendSetSize: 0 deInUse: 0 bcInUse: 0 deSending: 0
   1128 21 00 00           5111 	ld	hl,#0x0000
   112B E5                 5112 	push	hl
                           5113 ;	genIpush
   112C 21 16 00           5114 	ld	hl,#0x0016
   112F E5                 5115 	push	hl
                           5116 ;	genIpush
   1130 21 3C 00           5117 	ld	hl,#0x003C
   1133 E5                 5118 	push	hl
                           5119 ;	genIpush
   1134 21 00 00           5120 	ld	hl,#0x0000
   1137 E5                 5121 	push	hl
                           5122 ;	genIpush
   1138 21 01 00           5123 	ld	hl,#0x0001
   113B E5                 5124 	push	hl
                           5125 ;	genCall
   113C CD 71 0F           5126 	call	_init_food
   113F E8 0A              5127 	lda	sp,10(sp)
                           5128 ;	src/food_spirit.c 377
                           5129 ;	genIpush
                           5130 ; _saveRegsForCall: sendSetSize: 0 deInUse: 0 bcInUse: 0 deSending: 0
   1141 21 00 00           5131 	ld	hl,#0x0000
   1144 E5                 5132 	push	hl
                           5133 ;	genIpush
   1145 21 19 00           5134 	ld	hl,#0x0019
   1148 E5                 5135 	push	hl
                           5136 ;	genIpush
   1149 21 1E 00           5137 	ld	hl,#0x001E
   114C E5                 5138 	push	hl
                           5139 ;	genIpush
   114D 21 00 00           5140 	ld	hl,#0x0000
   1150 E5                 5141 	push	hl
                           5142 ;	genIpush
   1151 21 02 00           5143 	ld	hl,#0x0002
   1154 E5                 5144 	push	hl
                           5145 ;	genCall
   1155 CD 71 0F           5146 	call	_init_food
   1158 E8 0A              5147 	lda	sp,10(sp)
                           5148 ;	src/food_spirit.c 378
                           5149 ;	genIpush
                           5150 ; _saveRegsForCall: sendSetSize: 0 deInUse: 0 bcInUse: 0 deSending: 0
   115A 21 00 00           5151 	ld	hl,#0x0000
   115D E5                 5152 	push	hl
                           5153 ;	genIpush
   115E 21 1B 00           5154 	ld	hl,#0x001B
   1161 E5                 5155 	push	hl
                           5156 ;	genIpush
   1162 21 28 00           5157 	ld	hl,#0x0028
   1165 E5                 5158 	push	hl
                           5159 ;	genIpush
   1166 21 00 00           5160 	ld	hl,#0x0000
   1169 E5                 5161 	push	hl
                           5162 ;	genIpush
   116A 21 03 00           5163 	ld	hl,#0x0003
   116D E5                 5164 	push	hl
                           5165 ;	genCall
   116E CD 71 0F           5166 	call	_init_food
   1171 E8 0A              5167 	lda	sp,10(sp)
                           5168 ;	src/food_spirit.c 379
                           5169 ;	genIpush
                           5170 ; _saveRegsForCall: sendSetSize: 0 deInUse: 0 bcInUse: 0 deSending: 0
   1173 21 00 00           5171 	ld	hl,#0x0000
   1176 E5                 5172 	push	hl
                           5173 ;	genIpush
   1177 21 1F 00           5174 	ld	hl,#0x001F
   117A E5                 5175 	push	hl
                           5176 ;	genIpush
   117B 21 50 00           5177 	ld	hl,#0x0050
   117E E5                 5178 	push	hl
                           5179 ;	genIpush
   117F 21 00 00           5180 	ld	hl,#0x0000
   1182 E5                 5181 	push	hl
                           5182 ;	genIpush
   1183 21 04 00           5183 	ld	hl,#0x0004
   1186 E5                 5184 	push	hl
                           5185 ;	genCall
   1187 CD 71 0F           5186 	call	_init_food
   118A E8 0A              5187 	lda	sp,10(sp)
                           5188 ;	src/food_spirit.c 380
                           5189 ;	genIpush
                           5190 ; _saveRegsForCall: sendSetSize: 0 deInUse: 0 bcInUse: 0 deSending: 0
   118C 21 00 00           5191 	ld	hl,#0x0000
   118F E5                 5192 	push	hl
                           5193 ;	genIpush
   1190 21 16 00           5194 	ld	hl,#0x0016
   1193 E5                 5195 	push	hl
                           5196 ;	genIpush
   1194 21 3C 00           5197 	ld	hl,#0x003C
   1197 E5                 5198 	push	hl
                           5199 ;	genIpush
   1198 21 00 00           5200 	ld	hl,#0x0000
   119B E5                 5201 	push	hl
                           5202 ;	genIpush
   119C 21 05 00           5203 	ld	hl,#0x0005
   119F E5                 5204 	push	hl
                           5205 ;	genCall
   11A0 CD 71 0F           5206 	call	_init_food
   11A3 E8 0A              5207 	lda	sp,10(sp)
                           5208 ;	src/food_spirit.c 381
                           5209 ;	genIpush
                           5210 ; _saveRegsForCall: sendSetSize: 0 deInUse: 0 bcInUse: 0 deSending: 0
   11A5 21 00 00           5211 	ld	hl,#0x0000
   11A8 E5                 5212 	push	hl
                           5213 ;	genIpush
   11A9 21 19 00           5214 	ld	hl,#0x0019
   11AC E5                 5215 	push	hl
                           5216 ;	genIpush
   11AD 21 1E 00           5217 	ld	hl,#0x001E
   11B0 E5                 5218 	push	hl
                           5219 ;	genIpush
   11B1 21 00 00           5220 	ld	hl,#0x0000
   11B4 E5                 5221 	push	hl
                           5222 ;	genIpush
   11B5 21 06 00           5223 	ld	hl,#0x0006
   11B8 E5                 5224 	push	hl
                           5225 ;	genCall
   11B9 CD 71 0F           5226 	call	_init_food
   11BC E8 0A              5227 	lda	sp,10(sp)
                           5228 ;	src/food_spirit.c 382
                           5229 ;	genIpush
                           5230 ; _saveRegsForCall: sendSetSize: 0 deInUse: 0 bcInUse: 0 deSending: 0
   11BE 21 00 00           5231 	ld	hl,#0x0000
   11C1 E5                 5232 	push	hl
                           5233 ;	genIpush
   11C2 21 1B 00           5234 	ld	hl,#0x001B
   11C5 E5                 5235 	push	hl
                           5236 ;	genIpush
   11C6 21 28 00           5237 	ld	hl,#0x0028
   11C9 E5                 5238 	push	hl
                           5239 ;	genIpush
   11CA 21 00 00           5240 	ld	hl,#0x0000
   11CD E5                 5241 	push	hl
                           5242 ;	genIpush
   11CE 21 07 00           5243 	ld	hl,#0x0007
   11D1 E5                 5244 	push	hl
                           5245 ;	genCall
   11D2 CD 71 0F           5246 	call	_init_food
   11D5 E8 0A              5247 	lda	sp,10(sp)
                           5248 ;	src/food_spirit.c 384
                           5249 ;	genAssign
   11D7 01 40 FF           5250 	ld	bc,#0xFF40
                           5251 ;	genAssign
                           5252 ;	AOP_STK for _initialize_sloc0_1_0
   11DA F8 01              5253 	lda	hl,1(sp)
   11DC 36 40              5254 	ld	(hl),#0x40
   11DE 23                 5255 	inc	hl
   11DF 36 FF              5256 	ld	(hl),#0xFF
                           5257 ;	genPointerGet
                           5258 ;	AOP_STK for _initialize_sloc0_1_0
                           5259 ;	AOP_STK for _initialize_sloc1_1_0
   11E1 2B                 5260 	dec	hl
   11E2 5E                 5261 	ld	e,(hl)
   11E3 23                 5262 	inc	hl
   11E4 56                 5263 	ld	d,(hl)
   11E5 1A                 5264 	ld	a,(de)
   11E6 2B                 5265 	dec	hl
   11E7 2B                 5266 	dec	hl
                           5267 ;	genOr
                           5268 ;	AOP_STK for _initialize_sloc1_1_0
   11E8 77                 5269 	ld      (hl),a
   11E9 7F                 5270 	ld      a,a
   11EA F6 01              5271 	or	a,#0x01
                           5272 ;	genAssign (pointer)
   11EC 02                 5273 	ld	(bc),a
                           5274 ;	src/food_spirit.c 385
                           5275 ;	genAssign
   11ED 01 40 FF           5276 	ld	bc,#0xFF40
                           5277 ;	genAssign
                           5278 ;	AOP_STK for _initialize_sloc0_1_0
   11F0 23                 5279 	inc	hl
   11F1 36 40              5280 	ld	(hl),#0x40
   11F3 23                 5281 	inc	hl
   11F4 36 FF              5282 	ld	(hl),#0xFF
                           5283 ;	genPointerGet
                           5284 ;	AOP_STK for _initialize_sloc0_1_0
                           5285 ;	AOP_STK for _initialize_sloc1_1_0
   11F6 2B                 5286 	dec	hl
   11F7 5E                 5287 	ld	e,(hl)
   11F8 23                 5288 	inc	hl
   11F9 56                 5289 	ld	d,(hl)
   11FA 1A                 5290 	ld	a,(de)
   11FB 2B                 5291 	dec	hl
   11FC 2B                 5292 	dec	hl
                           5293 ;	genOr
                           5294 ;	AOP_STK for _initialize_sloc1_1_0
   11FD 77                 5295 	ld      (hl),a
   11FE 7F                 5296 	ld      a,a
   11FF F6 02              5297 	or	a,#0x02
                           5298 ;	genAssign (pointer)
   1201 02                 5299 	ld	(bc),a
                           5300 ;	genLabel
   1202                    5301 00101$:
                           5302 ;	genEndFunction
   1202 E8 03              5303 	lda	sp,3(sp)
   1204 C9                 5304 	ret
   1205                    5305 ___initialize_end:
                           5306 ;	src/food_spirit.c 388
                           5307 ;	genLabel
                           5308 ;	genFunction
                           5309 ;	---------------------------------
                           5310 ; Function main
                           5311 ; ---------------------------------
   1205                    5312 ___main_start:
   1205                    5313 _main:
                           5314 	
                           5315 ;	src/food_spirit.c 389
                           5316 ;	genCall
                           5317 ; _saveRegsForCall: sendSetSize: 0 deInUse: 0 bcInUse: 0 deSending: 0
   1205 CD 00 00           5318 	call	_wait_vbl_done
                           5319 ;	src/food_spirit.c 390
                           5320 ;	genCall
                           5321 ; _saveRegsForCall: sendSetSize: 0 deInUse: 0 bcInUse: 0 deSending: 0
   1208 CD FE 10           5322 	call	_initialize
                           5323 ;	src/food_spirit.c 392
                           5324 ;	genLabel
   120B                    5325 00102$:
                           5326 ;	src/food_spirit.c 393
                           5327 ;	genCall
                           5328 ; _saveRegsForCall: sendSetSize: 0 deInUse: 0 bcInUse: 0 deSending: 0
   120B CD 00 00           5329 	call	_wait_vbl_done
                           5330 ;	src/food_spirit.c 394
                           5331 ;	genCall
                           5332 ; _saveRegsForCall: sendSetSize: 0 deInUse: 0 bcInUse: 0 deSending: 0
   120E CD EE 10           5333 	call	_game_loop
                           5334 ;	genGoto
   1211 C3 0B 12           5335 	jp	00102$
                           5336 ;	genLabel
   1214                    5337 00104$:
                           5338 ;	genEndFunction
                           5339 	
   1214 C9                 5340 	ret
   1215                    5341 ___main_end:
                           5342 	.area _CODE
ASxxxx Assembler V01.75  (GameBoy Z80-like CPU), page 1.

Symbol Table

  0 _MAP_BG_1                          01D9 GR
  0 _MAP_PAL_BG_1                      032D GR
  0 _PAL_BG_FIRE                       04C1 GR
  0 _PAL_BG_POT                        04A1 GR
  0 _PAL_BG_POT_DARK                   04A9 GR
  0 _PAL_BG_POT_DARK_2                 04B1 GR
  0 _PAL_BG_POT_DARK_3                 04B9 GR
  0 _PAL_BG_SPOTS                      0499 GR
  0 _PAL_FOOD_0                        0491 GR
  0 _PAL_FOOD_TOUCH                    0489 GR
  0 _PAL_PLAYER                        0481 GR
  0 _SPR_DAT_FOOD_0_0_0                00C9 GR
  0 _SPR_DAT_FOOD_0_0_1                0109 GR
  0 _SPR_DAT_FOOD_0_1_0                00E9 GR
  0 _SPR_DAT_FOOD_0_1_1                0129 GR
  0 _SPR_DAT_FOOD_1_0_0                00D9 GR
  0 _SPR_DAT_FOOD_1_0_1                0119 GR
  0 _SPR_DAT_FOOD_1_1_0                00F9 GR
  0 _SPR_DAT_FOOD_1_1_1                0139 GR
  0 _SPR_DAT_PLAYER_0_0_MID            0069 GR
  0 _SPR_DAT_PLAYER_0_1_MID            0089 GR
  0 _SPR_DAT_PLAYER_0_2_MID            00A9 GR
  0 _SPR_DAT_PLAYER_1_0_MID            0079 GR
  0 _SPR_DAT_PLAYER_1_1_MID            0099 GR
  0 _SPR_DAT_PLAYER_1_2_MID            00B9 GR
  0 _TILE_BLANK_EMPTY                  0149 GR
  0 _TILE_BLANK_LIGHT                  0159 GR
  0 _TILE_FIRE                         01C9 GR
  0 _TILE_POT_FLOOR                    0179 GR
  0 _TILE_POT_LEFT_CORNER              0189 GR
  0 _TILE_POT_LEFT_WALL                01A9 GR
  0 _TILE_POT_RIGHT_CORNER             0199 GR
  0 _TILE_POT_RIGHT_WALL               01B9 GR
  0 _TILE_SPOTS                        0169 GR
  0 ___bounce_food_end                 0533 R
  0 ___bounce_food_start               04C9 R
  0 ___draw_foods_end                  0CD3 R
  0 ___draw_foods_start                0BDC R
  0 ___draw_player_end                 0BDC R
  0 ___draw_player_start               0B3D R
  0 ___food_collision_end              06B6 R
  0 ___food_collision_start            0533 R
  0 ___food_logic_end                  0A80 R
  0 ___food_logic_start                06B6 R
  0 ___game_loop_end                   10FE R
  0 ___game_loop_start                 10EE R
  0 ___init_bg_end                     10EE R
  0 ___init_bg_start                   101A R
  0 ___init_food_end                   0FD6 R
  0 ___init_food_start                 0F71 R
  0 ___init_foods_end                  101A R
  0 ___init_foods_start                0FD6 R
  0 ___init_player_end                 0D6E R
  0 ___init_player_start               0CD3 R
  0 ___initialize_end                  1205 R
  0 ___initialize_start                10FE R
  0 ___main_end                        1215 R
  0 ___main_start                      1205 R
  0 ___player_idle_anim_end            0B3D R
  0 ___player_idle_anim_start          0AB0 R
  0 ___player_jump_and_gravity_end     0AB0 R
  0 ___player_jump_and_gravity_start   0A80 R
  0 ___read_controls_end               0069 R
  0 ___read_controls_start             0000 R
  0 ___set_food_type_end               0F71 R
  0 ___set_food_type_start             0D9D R
  0 ___set_up_food_sprite_end          0D9D R
  0 ___set_up_food_sprite_start        0D6E R
  0 _bounce_food                       04C9 GR
    _cgb_compatibility                 **** GX
  0 _draw_foods                        0BDC GR
  0 _draw_player                       0B3D GR
  0 _food_collision                    0533 GR
  0 _food_logic                        06B6 GR
  1 _foods                             0007 GR
  0 _game_loop                         10EE GR
    _get_rand                          **** GX
    _get_rand_ready                    **** GX
  0 _init_bg                           101A GR
  0 _init_food                         0F71 GR
  0 _init_foods                        0FD6 GR
  0 _init_player                       0CD3 GR
    _init_rand                         **** GX
  0 _initialize                        10FE GR
    _joypad                            **** GX
  0 _main                              1205 GR
    _move_sprite                       **** GX
  1 _player_dir                        0003 GR
  0 _player_idle_anim                  0AB0 GR
  1 _player_idle_anim_frames           0005 GR
  0 _player_jump_and_gravity           0A80 GR
  1 _player_jump_frames                0004 GR
  1 _player_x                          0000 GR
  1 _player_y                          0001 GR
  1 _player_y_draw_offset              0002 GR
    _pre_init_rand                     **** GX
  0 _read_controls                     0000 GR
    _set_bkg_data                      **** GX
    _set_bkg_palette                   **** GX
  0 _set_food_type                     0D9D GR
    _set_sprite_palette                **** GX
    _set_sprite_prop                   **** GX
    _set_up_bg                         **** GX
  0 _set_up_food_sprite                0D6E GR
    _set_up_sprite_simple              **** GX
    _wait_vbl_done                     **** GX

ASxxxx Assembler V01.75  (GameBoy Z80-like CPU), page 2.

Area Table

   0 _CODE                              size 1215   flags 0
   1 _DATA                              size   5F   flags 0
   2 _OVERLAY                           size    0   flags 0
   3 _ISEG                              size    0   flags 0
   4 _BSEG                              size    0   flags 0
   5 _XSEG                              size    0   flags 0
   6 _GSINIT                            size    0   flags 0
   7 _GSFINAL                           size    0   flags 0
   8 _HOME                              size    0   flags 0
