                              1 ;--------------------------------------------------------
                              2 ; File Created by SDCC : FreeWare ANSI-C Compiler
                              3 ; Version 2.3.1 Sun Feb 26 10:30:53 2017
                              4 
                              5 ;--------------------------------------------------------
                              6 	.module lcc34390
                              7 	
                              8 ;--------------------------------------------------------
                              9 ; Public variables in this module
                             10 ;--------------------------------------------------------
                             11 	.globl _main
                             12 	.globl _initialize
                             13 	.globl _init_bg
                             14 	.globl _init_player
                             15 	.globl _game_loop
                             16 	.globl _draw_player
                             17 	.globl _player_idle_anim
                             18 	.globl _player_jump_and_gravity
                             19 	.globl _read_controls
                             20 	.globl _player_idle_anim_frames
                             21 	.globl _player_jump_frames
                             22 	.globl _player_dir
                             23 	.globl _player_y_draw_offset
                             24 	.globl _player_y
                             25 	.globl _player_x
                             26 	.globl _PAL_BG_FIRE
                             27 	.globl _PAL_BG_POT_DARK_3
                             28 	.globl _PAL_BG_POT_DARK_2
                             29 	.globl _PAL_BG_POT_DARK
                             30 	.globl _PAL_BG_POT
                             31 	.globl _PAL_BG_SPOTS
                             32 	.globl _PAL_PLAYER
                             33 	.globl _MAP_PAL_BG_1
                             34 	.globl _MAP_BG_1
                             35 	.globl _TILE_FIRE
                             36 	.globl _TILE_POT_RIGHT_WALL
                             37 	.globl _TILE_POT_LEFT_WALL
                             38 	.globl _TILE_POT_RIGHT_CORNER
                             39 	.globl _TILE_POT_LEFT_CORNER
                             40 	.globl _TILE_POT_FLOOR
                             41 	.globl _TILE_SPOTS
                             42 	.globl _TILE_BLANK_LIGHT
                             43 	.globl _TILE_BLANK_EMPTY
                             44 	.globl _SPR_DAT_PLAYER_1_2_MID
                             45 	.globl _SPR_DAT_PLAYER_0_2_MID
                             46 	.globl _SPR_DAT_PLAYER_1_1_MID
                             47 	.globl _SPR_DAT_PLAYER_0_1_MID
                             48 	.globl _SPR_DAT_PLAYER_1_0_MID
                             49 	.globl _SPR_DAT_PLAYER_0_0_MID
                             50 ;--------------------------------------------------------
                             51 ; special function registers
                             52 ;--------------------------------------------------------
                             53 ;--------------------------------------------------------
                             54 ; special function bits 
                             55 ;--------------------------------------------------------
                             56 ;--------------------------------------------------------
                             57 ; internal ram data
                             58 ;--------------------------------------------------------
                             59 	.area _DATA
   0000                      60 _player_x::
   0000                      61 	.ds 1
   0001                      62 _player_y::
   0001                      63 	.ds 1
   0002                      64 _player_y_draw_offset::
   0002                      65 	.ds 1
   0003                      66 _player_dir::
   0003                      67 	.ds 1
   0004                      68 _player_jump_frames::
   0004                      69 	.ds 1
   0005                      70 _player_idle_anim_frames::
   0005                      71 	.ds 2
                             72 ;--------------------------------------------------------
                             73 ; overlayable items in internal ram 
                             74 ;--------------------------------------------------------
                             75 	.area _OVERLAY
                             76 ;--------------------------------------------------------
                             77 ; indirectly addressable internal ram data
                             78 ;--------------------------------------------------------
                             79 	.area _ISEG
                             80 ;--------------------------------------------------------
                             81 ; bit data
                             82 ;--------------------------------------------------------
                             83 	.area _BSEG
                             84 ;--------------------------------------------------------
                             85 ; external ram data
                             86 ;--------------------------------------------------------
                             87 	.area _XSEG
                             88 ;--------------------------------------------------------
                             89 ; global & static initialisations
                             90 ;--------------------------------------------------------
                             91 	.area _GSINIT
                             92 	.area _GSFINAL
                             93 	.area _GSINIT
                             94 ;--------------------------------------------------------
                             95 ; Home
                             96 ;--------------------------------------------------------
                             97 	.area _HOME
                             98 	.area _CODE
                             99 ;--------------------------------------------------------
                            100 ; code
                            101 ;--------------------------------------------------------
                            102 	.area _CODE
                            103 ;	src/food_spirit.c 28
                            104 ;	genLabel
                            105 ;	genFunction
                            106 ;	---------------------------------
                            107 ; Function read_controls
                            108 ; ---------------------------------
   0000                     109 ___read_controls_start:
   0000                     110 _read_controls:
                            111 	
                            112 ;	src/food_spirit.c 29
                            113 ;	genCall
                            114 ; _saveRegsForCall: sendSetSize: 0 deInUse: 0 bcInUse: 0 deSending: 0
   0000 CD 00 00            115 	call	_joypad
   0003 4B                  116 	ld	c,e
                            117 ;	genAssign
                            118 ;	(registers are the same)
                            119 ;	src/food_spirit.c 31
                            120 ;	genAnd
   0004 79                  121 	ld	a,c
   0005 E6 10               122 	and	a,#0x10
   0007 20 03               123 	jr	nz,00123$
   0009 C3 1E 00            124 	jp	00104$
   000C                     125 00123$:
                            126 ;	src/food_spirit.c 32
                            127 ;	genCmpEq
                            128 ;	AOP_HL for _player_jump_frames
                            129 ; genCmpEq: left 1, right 1, result 0
   000C 21 04 00            130 	ld	hl,#_player_jump_frames
   000F 7E                  131 	ld	a,(hl)
   0010 B7                  132 	or	a,a
   0011 C2 1E 00            133 	jp	nz,00104$
   0014 18 03               134 	jr	00125$
   0016                     135 00124$:
   0016 C3 1E 00            136 	jp	00104$
   0019                     137 00125$:
                            138 ;	src/food_spirit.c 33
                            139 ;	genAssign
                            140 ;	AOP_HL for _player_jump_frames
   0019 21 04 00            141 	ld	hl,#_player_jump_frames
   001C 36 14               142 	ld	(hl),#0x14
                            143 ;	genLabel
   001E                     144 00104$:
                            145 ;	src/food_spirit.c 37
                            146 ;	genAnd
   001E 79                  147 	ld	a,c
   001F E6 01               148 	and	a,#0x01
   0021 20 03               149 	jr	nz,00126$
   0023 C3 39 00            150 	jp	00113$
   0026                     151 00126$:
                            152 ;	src/food_spirit.c 38
                            153 ;	genCmpLt
                            154 ;	AOP_HL for _player_x
   0026 21 00 00            155 	ld	hl,#_player_x
   0029 7E                  156 	ld	a,(hl)
   002A FE 8C               157 	cp	#0x8C
   002C D2 31 00            158 	jp	nc,00106$
                            159 ;	src/food_spirit.c 39
                            160 ;	genPlus
                            161 ;	AOP_HL for _player_x
                            162 ;	genPlusIncr
   002F 34                  163 	inc	(hl)
   0030 34                  164 	inc	(hl)
                            165 ;	genLabel
   0031                     166 00106$:
                            167 ;	src/food_spirit.c 41
                            168 ;	genAssign
                            169 ;	AOP_HL for _player_dir
   0031 21 03 00            170 	ld	hl,#_player_dir
   0034 36 02               171 	ld	(hl),#0x02
                            172 ;	genGoto
   0036 C3 59 00            173 	jp	00115$
                            174 ;	genLabel
   0039                     175 00113$:
                            176 ;	src/food_spirit.c 42
                            177 ;	genAnd
   0039 79                  178 	ld	a,c
   003A E6 02               179 	and	a,#0x02
   003C 20 03               180 	jr	nz,00127$
   003E C3 54 00            181 	jp	00110$
   0041                     182 00127$:
                            183 ;	src/food_spirit.c 43
                            184 ;	genCmpGt
                            185 ;	AOP_HL for _player_x
   0041 3E 14               186 	ld	a,#0x14
   0043 21 00 00            187 	ld	hl,#_player_x
   0046 96                  188 	sub	a,(hl)
   0047 D2 4C 00            189 	jp	nc,00108$
                            190 ;	src/food_spirit.c 44
                            191 ;	genMinus
                            192 ;	AOP_HL for _player_x
   004A 35                  193 	dec	(hl)
   004B 35                  194 	dec	(hl)
                            195 ;	genLabel
   004C                     196 00108$:
                            197 ;	src/food_spirit.c 46
                            198 ;	genAssign
                            199 ;	AOP_HL for _player_dir
   004C 21 03 00            200 	ld	hl,#_player_dir
   004F 36 01               201 	ld	(hl),#0x01
                            202 ;	genGoto
   0051 C3 59 00            203 	jp	00115$
                            204 ;	genLabel
   0054                     205 00110$:
                            206 ;	src/food_spirit.c 48
                            207 ;	genAssign
                            208 ;	AOP_HL for _player_dir
   0054 21 03 00            209 	ld	hl,#_player_dir
   0057 36 00               210 	ld	(hl),#0x00
                            211 ;	genLabel
   0059                     212 00115$:
                            213 ;	genEndFunction
                            214 	
   0059 C9                  215 	ret
   005A                     216 ___read_controls_end:
   005A                     217 _SPR_DAT_PLAYER_0_0_MID:
   005A 0E                  218 	.db #0x0E
   005B 0E                  219 	.db #0x0E
   005C 13                  220 	.db #0x13
   005D 1D                  221 	.db #0x1D
   005E 0F                  222 	.db #0x0F
   005F 08                  223 	.db #0x08
   0060 0F                  224 	.db #0x0F
   0061 0A                  225 	.db #0x0A
   0062 0F                  226 	.db #0x0F
   0063 0A                  227 	.db #0x0A
   0064 0F                  228 	.db #0x0F
   0065 08                  229 	.db #0x08
   0066 07                  230 	.db #0x07
   0067 04                  231 	.db #0x04
   0068 0F                  232 	.db #0x0F
   0069 0C                  233 	.db #0x0C
   006A                     234 _SPR_DAT_PLAYER_1_0_MID:
   006A 00                  235 	.db #0x00
   006B 00                  236 	.db #0x00
   006C C0                  237 	.db #0xC0
   006D C0                  238 	.db #0xC0
   006E E0                  239 	.db #0xE0
   006F 20                  240 	.db #0x20
   0070 F0                  241 	.db #0xF0
   0071 50                  242 	.db #0x50
   0072 F0                  243 	.db #0xF0
   0073 50                  244 	.db #0x50
   0074 F0                  245 	.db #0xF0
   0075 10                  246 	.db #0x10
   0076 E0                  247 	.db #0xE0
   0077 20                  248 	.db #0x20
   0078 B0                  249 	.db #0xB0
   0079 70                  250 	.db #0x70
   007A                     251 _SPR_DAT_PLAYER_0_1_MID:
   007A 37                  252 	.db #0x37
   007B 38                  253 	.db #0x38
   007C 5F                  254 	.db #0x5F
   007D 60                  255 	.db #0x60
   007E FF                  256 	.db #0xFF
   007F 80                  257 	.db #0x80
   0080 EA                  258 	.db #0xEA
   0081 9D                  259 	.db #0x9D
   0082 B5                  260 	.db #0xB5
   0083 F6                  261 	.db #0xF6
   0084 C5                  262 	.db #0xC5
   0085 C6                  263 	.db #0xC6
   0086 42                  264 	.db #0x42
   0087 43                  265 	.db #0x43
   0088 05                  266 	.db #0x05
   0089 06                  267 	.db #0x06
   008A                     268 _SPR_DAT_PLAYER_1_1_MID:
   008A EC                  269 	.db #0xEC
   008B 1C                  270 	.db #0x1C
   008C FA                  271 	.db #0xFA
   008D 06                  272 	.db #0x06
   008E 7F                  273 	.db #0x7F
   008F 81                  274 	.db #0x81
   0090 DB                  275 	.db #0xDB
   0091 3D                  276 	.db #0x3D
   0092 E5                  277 	.db #0xE5
   0093 27                  278 	.db #0x27
   0094 53                  279 	.db #0x53
   0095 B3                  280 	.db #0xB3
   0096 D2                  281 	.db #0xD2
   0097 32                  282 	.db #0x32
   0098 E0                  283 	.db #0xE0
   0099 20                  284 	.db #0x20
   009A                     285 _SPR_DAT_PLAYER_0_2_MID:
   009A 07                  286 	.db #0x07
   009B 04                  287 	.db #0x04
   009C 07                  288 	.db #0x07
   009D 04                  289 	.db #0x04
   009E 0A                  290 	.db #0x0A
   009F 0D                  291 	.db #0x0D
   00A0 05                  292 	.db #0x05
   00A1 06                  293 	.db #0x06
   00A2 03                  294 	.db #0x03
   00A3 02                  295 	.db #0x02
   00A4 01                  296 	.db #0x01
   00A5 01                  297 	.db #0x01
   00A6 02                  298 	.db #0x02
   00A7 03                  299 	.db #0x03
   00A8 01                  300 	.db #0x01
   00A9 01                  301 	.db #0x01
   00AA                     302 _SPR_DAT_PLAYER_1_2_MID:
   00AA A0                  303 	.db #0xA0
   00AB 60                  304 	.db #0x60
   00AC 40                  305 	.db #0x40
   00AD C0                  306 	.db #0xC0
   00AE 80                  307 	.db #0x80
   00AF 80                  308 	.db #0x80
   00B0 40                  309 	.db #0x40
   00B1 C0                  310 	.db #0xC0
   00B2 A0                  311 	.db #0xA0
   00B3 60                  312 	.db #0x60
   00B4 40                  313 	.db #0x40
   00B5 C0                  314 	.db #0xC0
   00B6 80                  315 	.db #0x80
   00B7 80                  316 	.db #0x80
   00B8 00                  317 	.db #0x00
   00B9 00                  318 	.db #0x00
   00BA                     319 _TILE_BLANK_EMPTY:
   00BA 00                  320 	.db #0x00
   00BB 00                  321 	.db #0x00
   00BC 00                  322 	.db #0x00
   00BD 00                  323 	.db #0x00
   00BE 00                  324 	.db #0x00
   00BF 00                  325 	.db #0x00
   00C0 00                  326 	.db #0x00
   00C1 00                  327 	.db #0x00
   00C2 00                  328 	.db #0x00
   00C3 00                  329 	.db #0x00
   00C4 00                  330 	.db #0x00
   00C5 00                  331 	.db #0x00
   00C6 00                  332 	.db #0x00
   00C7 00                  333 	.db #0x00
   00C8 00                  334 	.db #0x00
   00C9 00                  335 	.db #0x00
   00CA                     336 _TILE_BLANK_LIGHT:
   00CA FF                  337 	.db #0xFF
   00CB 00                  338 	.db #0x00
   00CC FF                  339 	.db #0xFF
   00CD 00                  340 	.db #0x00
   00CE FF                  341 	.db #0xFF
   00CF 00                  342 	.db #0x00
   00D0 FF                  343 	.db #0xFF
   00D1 00                  344 	.db #0x00
   00D2 FF                  345 	.db #0xFF
   00D3 00                  346 	.db #0x00
   00D4 FF                  347 	.db #0xFF
   00D5 00                  348 	.db #0x00
   00D6 FF                  349 	.db #0xFF
   00D7 00                  350 	.db #0x00
   00D8 FF                  351 	.db #0xFF
   00D9 00                  352 	.db #0x00
   00DA                     353 _TILE_SPOTS:
   00DA 42                  354 	.db #0x42
   00DB 00                  355 	.db #0x00
   00DC 81                  356 	.db #0x81
   00DD 00                  357 	.db #0x00
   00DE 18                  358 	.db #0x18
   00DF 00                  359 	.db #0x00
   00E0 24                  360 	.db #0x24
   00E1 00                  361 	.db #0x00
   00E2 24                  362 	.db #0x24
   00E3 00                  363 	.db #0x00
   00E4 18                  364 	.db #0x18
   00E5 00                  365 	.db #0x00
   00E6 81                  366 	.db #0x81
   00E7 00                  367 	.db #0x00
   00E8 42                  368 	.db #0x42
   00E9 00                  369 	.db #0x00
   00EA                     370 _TILE_POT_FLOOR:
   00EA FF                  371 	.db #0xFF
   00EB 00                  372 	.db #0x00
   00EC FF                  373 	.db #0xFF
   00ED 00                  374 	.db #0x00
   00EE FF                  375 	.db #0xFF
   00EF 00                  376 	.db #0x00
   00F0 FF                  377 	.db #0xFF
   00F1 FF                  378 	.db #0xFF
   00F2 FF                  379 	.db #0xFF
   00F3 FF                  380 	.db #0xFF
   00F4 FF                  381 	.db #0xFF
   00F5 FF                  382 	.db #0xFF
   00F6 00                  383 	.db #0x00
   00F7 FF                  384 	.db #0xFF
   00F8 00                  385 	.db #0x00
   00F9 00                  386 	.db #0x00
   00FA                     387 _TILE_POT_LEFT_CORNER:
   00FA FF                  388 	.db #0xFF
   00FB F0                  389 	.db #0xF0
   00FC FF                  390 	.db #0xFF
   00FD F0                  391 	.db #0xF0
   00FE FF                  392 	.db #0xFF
   00FF F8                  393 	.db #0xF8
   0100 FF                  394 	.db #0xFF
   0101 FF                  395 	.db #0xFF
   0102 7F                  396 	.db #0x7F
   0103 7F                  397 	.db #0x7F
   0104 3F                  398 	.db #0x3F
   0105 3F                  399 	.db #0x3F
   0106 10                  400 	.db #0x10
   0107 1F                  401 	.db #0x1F
   0108 00                  402 	.db #0x00
   0109 00                  403 	.db #0x00
   010A                     404 _TILE_POT_RIGHT_CORNER:
   010A FF                  405 	.db #0xFF
   010B 0F                  406 	.db #0x0F
   010C FF                  407 	.db #0xFF
   010D 0F                  408 	.db #0x0F
   010E FF                  409 	.db #0xFF
   010F 1F                  410 	.db #0x1F
   0110 FF                  411 	.db #0xFF
   0111 FF                  412 	.db #0xFF
   0112 FE                  413 	.db #0xFE
   0113 FE                  414 	.db #0xFE
   0114 FC                  415 	.db #0xFC
   0115 FC                  416 	.db #0xFC
   0116 08                  417 	.db #0x08
   0117 F8                  418 	.db #0xF8
   0118 00                  419 	.db #0x00
   0119 00                  420 	.db #0x00
   011A                     421 _TILE_POT_LEFT_WALL:
   011A FF                  422 	.db #0xFF
   011B F0                  423 	.db #0xF0
   011C FF                  424 	.db #0xFF
   011D F0                  425 	.db #0xF0
   011E FF                  426 	.db #0xFF
   011F F0                  427 	.db #0xF0
   0120 FF                  428 	.db #0xFF
   0121 F0                  429 	.db #0xF0
   0122 FF                  430 	.db #0xFF
   0123 F0                  431 	.db #0xF0
   0124 FF                  432 	.db #0xFF
   0125 F0                  433 	.db #0xF0
   0126 FF                  434 	.db #0xFF
   0127 F0                  435 	.db #0xF0
   0128 FF                  436 	.db #0xFF
   0129 F0                  437 	.db #0xF0
   012A                     438 _TILE_POT_RIGHT_WALL:
   012A FF                  439 	.db #0xFF
   012B 0F                  440 	.db #0x0F
   012C FF                  441 	.db #0xFF
   012D 0F                  442 	.db #0x0F
   012E FF                  443 	.db #0xFF
   012F 0F                  444 	.db #0x0F
   0130 FF                  445 	.db #0xFF
   0131 0F                  446 	.db #0x0F
   0132 FF                  447 	.db #0xFF
   0133 0F                  448 	.db #0x0F
   0134 FF                  449 	.db #0xFF
   0135 0F                  450 	.db #0x0F
   0136 FF                  451 	.db #0xFF
   0137 0F                  452 	.db #0x0F
   0138 FF                  453 	.db #0xFF
   0139 0F                  454 	.db #0x0F
   013A                     455 _TILE_FIRE:
   013A 10                  456 	.db #0x10
   013B 10                  457 	.db #0x10
   013C 30                  458 	.db #0x30
   013D 30                  459 	.db #0x30
   013E 28                  460 	.db #0x28
   013F 38                  461 	.db #0x38
   0140 24                  462 	.db #0x24
   0141 3C                  463 	.db #0x3C
   0142 54                  464 	.db #0x54
   0143 6C                  465 	.db #0x6C
   0144 5A                  466 	.db #0x5A
   0145 66                  467 	.db #0x66
   0146 6E                  468 	.db #0x6E
   0147 52                  469 	.db #0x52
   0148 34                  470 	.db #0x34
   0149 2C                  471 	.db #0x2C
   014A                     472 _MAP_BG_1:
   014A 01                  473 	.db #0x01
   014B 01                  474 	.db #0x01
   014C 01                  475 	.db #0x01
   014D 01                  476 	.db #0x01
   014E 01                  477 	.db #0x01
   014F 01                  478 	.db #0x01
   0150 01                  479 	.db #0x01
   0151 01                  480 	.db #0x01
   0152 01                  481 	.db #0x01
   0153 01                  482 	.db #0x01
   0154 01                  483 	.db #0x01
   0155 01                  484 	.db #0x01
   0156 01                  485 	.db #0x01
   0157 01                  486 	.db #0x01
   0158 01                  487 	.db #0x01
   0159 01                  488 	.db #0x01
   015A 01                  489 	.db #0x01
   015B 01                  490 	.db #0x01
   015C 01                  491 	.db #0x01
   015D 01                  492 	.db #0x01
   015E 01                  493 	.db #0x01
   015F 01                  494 	.db #0x01
   0160 01                  495 	.db #0x01
   0161 01                  496 	.db #0x01
   0162 01                  497 	.db #0x01
   0163 01                  498 	.db #0x01
   0164 01                  499 	.db #0x01
   0165 01                  500 	.db #0x01
   0166 01                  501 	.db #0x01
   0167 01                  502 	.db #0x01
   0168 01                  503 	.db #0x01
   0169 01                  504 	.db #0x01
   016A 01                  505 	.db #0x01
   016B 01                  506 	.db #0x01
   016C 01                  507 	.db #0x01
   016D 01                  508 	.db #0x01
   016E 01                  509 	.db #0x01
   016F 01                  510 	.db #0x01
   0170 01                  511 	.db #0x01
   0171 01                  512 	.db #0x01
   0172 01                  513 	.db #0x01
   0173 05                  514 	.db #0x05
   0174 08                  515 	.db #0x08
   0175 08                  516 	.db #0x08
   0176 08                  517 	.db #0x08
   0177 08                  518 	.db #0x08
   0178 08                  519 	.db #0x08
   0179 08                  520 	.db #0x08
   017A 08                  521 	.db #0x08
   017B 08                  522 	.db #0x08
   017C 08                  523 	.db #0x08
   017D 08                  524 	.db #0x08
   017E 08                  525 	.db #0x08
   017F 08                  526 	.db #0x08
   0180 08                  527 	.db #0x08
   0181 08                  528 	.db #0x08
   0182 08                  529 	.db #0x08
   0183 08                  530 	.db #0x08
   0184 06                  531 	.db #0x06
   0185 01                  532 	.db #0x01
   0186 01                  533 	.db #0x01
   0187 05                  534 	.db #0x05
   0188 08                  535 	.db #0x08
   0189 08                  536 	.db #0x08
   018A 08                  537 	.db #0x08
   018B 08                  538 	.db #0x08
   018C 08                  539 	.db #0x08
   018D 08                  540 	.db #0x08
   018E 08                  541 	.db #0x08
   018F 08                  542 	.db #0x08
   0190 08                  543 	.db #0x08
   0191 08                  544 	.db #0x08
   0192 08                  545 	.db #0x08
   0193 08                  546 	.db #0x08
   0194 08                  547 	.db #0x08
   0195 08                  548 	.db #0x08
   0196 08                  549 	.db #0x08
   0197 08                  550 	.db #0x08
   0198 06                  551 	.db #0x06
   0199 01                  552 	.db #0x01
   019A 01                  553 	.db #0x01
   019B 05                  554 	.db #0x05
   019C 08                  555 	.db #0x08
   019D 08                  556 	.db #0x08
   019E 08                  557 	.db #0x08
   019F 08                  558 	.db #0x08
   01A0 08                  559 	.db #0x08
   01A1 08                  560 	.db #0x08
   01A2 08                  561 	.db #0x08
   01A3 08                  562 	.db #0x08
   01A4 08                  563 	.db #0x08
   01A5 08                  564 	.db #0x08
   01A6 08                  565 	.db #0x08
   01A7 08                  566 	.db #0x08
   01A8 08                  567 	.db #0x08
   01A9 08                  568 	.db #0x08
   01AA 08                  569 	.db #0x08
   01AB 08                  570 	.db #0x08
   01AC 06                  571 	.db #0x06
   01AD 01                  572 	.db #0x01
   01AE 01                  573 	.db #0x01
   01AF 05                  574 	.db #0x05
   01B0 08                  575 	.db #0x08
   01B1 08                  576 	.db #0x08
   01B2 08                  577 	.db #0x08
   01B3 08                  578 	.db #0x08
   01B4 08                  579 	.db #0x08
   01B5 08                  580 	.db #0x08
   01B6 08                  581 	.db #0x08
   01B7 08                  582 	.db #0x08
   01B8 08                  583 	.db #0x08
   01B9 08                  584 	.db #0x08
   01BA 08                  585 	.db #0x08
   01BB 08                  586 	.db #0x08
   01BC 08                  587 	.db #0x08
   01BD 08                  588 	.db #0x08
   01BE 08                  589 	.db #0x08
   01BF 08                  590 	.db #0x08
   01C0 06                  591 	.db #0x06
   01C1 01                  592 	.db #0x01
   01C2 01                  593 	.db #0x01
   01C3 05                  594 	.db #0x05
   01C4 08                  595 	.db #0x08
   01C5 08                  596 	.db #0x08
   01C6 08                  597 	.db #0x08
   01C7 08                  598 	.db #0x08
   01C8 08                  599 	.db #0x08
   01C9 08                  600 	.db #0x08
   01CA 08                  601 	.db #0x08
   01CB 08                  602 	.db #0x08
   01CC 08                  603 	.db #0x08
   01CD 08                  604 	.db #0x08
   01CE 08                  605 	.db #0x08
   01CF 08                  606 	.db #0x08
   01D0 08                  607 	.db #0x08
   01D1 08                  608 	.db #0x08
   01D2 08                  609 	.db #0x08
   01D3 08                  610 	.db #0x08
   01D4 06                  611 	.db #0x06
   01D5 01                  612 	.db #0x01
   01D6 01                  613 	.db #0x01
   01D7 05                  614 	.db #0x05
   01D8 08                  615 	.db #0x08
   01D9 08                  616 	.db #0x08
   01DA 08                  617 	.db #0x08
   01DB 08                  618 	.db #0x08
   01DC 08                  619 	.db #0x08
   01DD 08                  620 	.db #0x08
   01DE 08                  621 	.db #0x08
   01DF 08                  622 	.db #0x08
   01E0 08                  623 	.db #0x08
   01E1 08                  624 	.db #0x08
   01E2 08                  625 	.db #0x08
   01E3 08                  626 	.db #0x08
   01E4 08                  627 	.db #0x08
   01E5 08                  628 	.db #0x08
   01E6 08                  629 	.db #0x08
   01E7 08                  630 	.db #0x08
   01E8 06                  631 	.db #0x06
   01E9 01                  632 	.db #0x01
   01EA 01                  633 	.db #0x01
   01EB 05                  634 	.db #0x05
   01EC 08                  635 	.db #0x08
   01ED 08                  636 	.db #0x08
   01EE 08                  637 	.db #0x08
   01EF 08                  638 	.db #0x08
   01F0 08                  639 	.db #0x08
   01F1 08                  640 	.db #0x08
   01F2 08                  641 	.db #0x08
   01F3 08                  642 	.db #0x08
   01F4 08                  643 	.db #0x08
   01F5 08                  644 	.db #0x08
   01F6 08                  645 	.db #0x08
   01F7 08                  646 	.db #0x08
   01F8 08                  647 	.db #0x08
   01F9 08                  648 	.db #0x08
   01FA 08                  649 	.db #0x08
   01FB 08                  650 	.db #0x08
   01FC 06                  651 	.db #0x06
   01FD 01                  652 	.db #0x01
   01FE 01                  653 	.db #0x01
   01FF 05                  654 	.db #0x05
   0200 08                  655 	.db #0x08
   0201 08                  656 	.db #0x08
   0202 08                  657 	.db #0x08
   0203 08                  658 	.db #0x08
   0204 08                  659 	.db #0x08
   0205 08                  660 	.db #0x08
   0206 08                  661 	.db #0x08
   0207 08                  662 	.db #0x08
   0208 08                  663 	.db #0x08
   0209 08                  664 	.db #0x08
   020A 08                  665 	.db #0x08
   020B 08                  666 	.db #0x08
   020C 08                  667 	.db #0x08
   020D 08                  668 	.db #0x08
   020E 08                  669 	.db #0x08
   020F 08                  670 	.db #0x08
   0210 06                  671 	.db #0x06
   0211 01                  672 	.db #0x01
   0212 01                  673 	.db #0x01
   0213 05                  674 	.db #0x05
   0214 08                  675 	.db #0x08
   0215 08                  676 	.db #0x08
   0216 08                  677 	.db #0x08
   0217 08                  678 	.db #0x08
   0218 08                  679 	.db #0x08
   0219 08                  680 	.db #0x08
   021A 08                  681 	.db #0x08
   021B 08                  682 	.db #0x08
   021C 08                  683 	.db #0x08
   021D 08                  684 	.db #0x08
   021E 08                  685 	.db #0x08
   021F 08                  686 	.db #0x08
   0220 08                  687 	.db #0x08
   0221 08                  688 	.db #0x08
   0222 08                  689 	.db #0x08
   0223 08                  690 	.db #0x08
   0224 06                  691 	.db #0x06
   0225 01                  692 	.db #0x01
   0226 01                  693 	.db #0x01
   0227 05                  694 	.db #0x05
   0228 08                  695 	.db #0x08
   0229 08                  696 	.db #0x08
   022A 08                  697 	.db #0x08
   022B 08                  698 	.db #0x08
   022C 08                  699 	.db #0x08
   022D 08                  700 	.db #0x08
   022E 08                  701 	.db #0x08
   022F 08                  702 	.db #0x08
   0230 08                  703 	.db #0x08
   0231 08                  704 	.db #0x08
   0232 08                  705 	.db #0x08
   0233 08                  706 	.db #0x08
   0234 08                  707 	.db #0x08
   0235 08                  708 	.db #0x08
   0236 08                  709 	.db #0x08
   0237 08                  710 	.db #0x08
   0238 06                  711 	.db #0x06
   0239 01                  712 	.db #0x01
   023A 01                  713 	.db #0x01
   023B 05                  714 	.db #0x05
   023C 08                  715 	.db #0x08
   023D 08                  716 	.db #0x08
   023E 08                  717 	.db #0x08
   023F 08                  718 	.db #0x08
   0240 08                  719 	.db #0x08
   0241 08                  720 	.db #0x08
   0242 08                  721 	.db #0x08
   0243 08                  722 	.db #0x08
   0244 08                  723 	.db #0x08
   0245 08                  724 	.db #0x08
   0246 08                  725 	.db #0x08
   0247 08                  726 	.db #0x08
   0248 08                  727 	.db #0x08
   0249 08                  728 	.db #0x08
   024A 08                  729 	.db #0x08
   024B 08                  730 	.db #0x08
   024C 06                  731 	.db #0x06
   024D 01                  732 	.db #0x01
   024E 01                  733 	.db #0x01
   024F 05                  734 	.db #0x05
   0250 08                  735 	.db #0x08
   0251 08                  736 	.db #0x08
   0252 08                  737 	.db #0x08
   0253 08                  738 	.db #0x08
   0254 08                  739 	.db #0x08
   0255 08                  740 	.db #0x08
   0256 08                  741 	.db #0x08
   0257 08                  742 	.db #0x08
   0258 08                  743 	.db #0x08
   0259 08                  744 	.db #0x08
   025A 08                  745 	.db #0x08
   025B 08                  746 	.db #0x08
   025C 08                  747 	.db #0x08
   025D 08                  748 	.db #0x08
   025E 08                  749 	.db #0x08
   025F 08                  750 	.db #0x08
   0260 06                  751 	.db #0x06
   0261 01                  752 	.db #0x01
   0262 01                  753 	.db #0x01
   0263 05                  754 	.db #0x05
   0264 08                  755 	.db #0x08
   0265 08                  756 	.db #0x08
   0266 08                  757 	.db #0x08
   0267 08                  758 	.db #0x08
   0268 08                  759 	.db #0x08
   0269 08                  760 	.db #0x08
   026A 08                  761 	.db #0x08
   026B 08                  762 	.db #0x08
   026C 08                  763 	.db #0x08
   026D 08                  764 	.db #0x08
   026E 08                  765 	.db #0x08
   026F 08                  766 	.db #0x08
   0270 08                  767 	.db #0x08
   0271 08                  768 	.db #0x08
   0272 08                  769 	.db #0x08
   0273 08                  770 	.db #0x08
   0274 06                  771 	.db #0x06
   0275 01                  772 	.db #0x01
   0276 01                  773 	.db #0x01
   0277 03                  774 	.db #0x03
   0278 02                  775 	.db #0x02
   0279 02                  776 	.db #0x02
   027A 02                  777 	.db #0x02
   027B 02                  778 	.db #0x02
   027C 02                  779 	.db #0x02
   027D 02                  780 	.db #0x02
   027E 02                  781 	.db #0x02
   027F 02                  782 	.db #0x02
   0280 02                  783 	.db #0x02
   0281 02                  784 	.db #0x02
   0282 02                  785 	.db #0x02
   0283 02                  786 	.db #0x02
   0284 02                  787 	.db #0x02
   0285 02                  788 	.db #0x02
   0286 02                  789 	.db #0x02
   0287 02                  790 	.db #0x02
   0288 04                  791 	.db #0x04
   0289 01                  792 	.db #0x01
   028A 01                  793 	.db #0x01
   028B 01                  794 	.db #0x01
   028C 07                  795 	.db #0x07
   028D 07                  796 	.db #0x07
   028E 07                  797 	.db #0x07
   028F 07                  798 	.db #0x07
   0290 07                  799 	.db #0x07
   0291 07                  800 	.db #0x07
   0292 07                  801 	.db #0x07
   0293 07                  802 	.db #0x07
   0294 07                  803 	.db #0x07
   0295 07                  804 	.db #0x07
   0296 07                  805 	.db #0x07
   0297 07                  806 	.db #0x07
   0298 07                  807 	.db #0x07
   0299 07                  808 	.db #0x07
   029A 07                  809 	.db #0x07
   029B 07                  810 	.db #0x07
   029C 01                  811 	.db #0x01
   029D 01                  812 	.db #0x01
   029E                     813 _MAP_PAL_BG_1:
   029E 01                  814 	.db #0x01
   029F 01                  815 	.db #0x01
   02A0 01                  816 	.db #0x01
   02A1 01                  817 	.db #0x01
   02A2 01                  818 	.db #0x01
   02A3 01                  819 	.db #0x01
   02A4 01                  820 	.db #0x01
   02A5 01                  821 	.db #0x01
   02A6 01                  822 	.db #0x01
   02A7 01                  823 	.db #0x01
   02A8 01                  824 	.db #0x01
   02A9 01                  825 	.db #0x01
   02AA 01                  826 	.db #0x01
   02AB 01                  827 	.db #0x01
   02AC 01                  828 	.db #0x01
   02AD 01                  829 	.db #0x01
   02AE 01                  830 	.db #0x01
   02AF 01                  831 	.db #0x01
   02B0 01                  832 	.db #0x01
   02B1 01                  833 	.db #0x01
   02B2 01                  834 	.db #0x01
   02B3 01                  835 	.db #0x01
   02B4 01                  836 	.db #0x01
   02B5 01                  837 	.db #0x01
   02B6 01                  838 	.db #0x01
   02B7 01                  839 	.db #0x01
   02B8 01                  840 	.db #0x01
   02B9 01                  841 	.db #0x01
   02BA 01                  842 	.db #0x01
   02BB 01                  843 	.db #0x01
   02BC 01                  844 	.db #0x01
   02BD 01                  845 	.db #0x01
   02BE 01                  846 	.db #0x01
   02BF 01                  847 	.db #0x01
   02C0 01                  848 	.db #0x01
   02C1 01                  849 	.db #0x01
   02C2 01                  850 	.db #0x01
   02C3 01                  851 	.db #0x01
   02C4 01                  852 	.db #0x01
   02C5 01                  853 	.db #0x01
   02C6 01                  854 	.db #0x01
   02C7 02                  855 	.db #0x02
   02C8 04                  856 	.db #0x04
   02C9 05                  857 	.db #0x05
   02CA 05                  858 	.db #0x05
   02CB 05                  859 	.db #0x05
   02CC 06                  860 	.db #0x06
   02CD 06                  861 	.db #0x06
   02CE 06                  862 	.db #0x06
   02CF 06                  863 	.db #0x06
   02D0 06                  864 	.db #0x06
   02D1 06                  865 	.db #0x06
   02D2 06                  866 	.db #0x06
   02D3 06                  867 	.db #0x06
   02D4 05                  868 	.db #0x05
   02D5 05                  869 	.db #0x05
   02D6 05                  870 	.db #0x05
   02D7 04                  871 	.db #0x04
   02D8 02                  872 	.db #0x02
   02D9 01                  873 	.db #0x01
   02DA 01                  874 	.db #0x01
   02DB 02                  875 	.db #0x02
   02DC 04                  876 	.db #0x04
   02DD 05                  877 	.db #0x05
   02DE 05                  878 	.db #0x05
   02DF 05                  879 	.db #0x05
   02E0 06                  880 	.db #0x06
   02E1 06                  881 	.db #0x06
   02E2 06                  882 	.db #0x06
   02E3 06                  883 	.db #0x06
   02E4 06                  884 	.db #0x06
   02E5 06                  885 	.db #0x06
   02E6 06                  886 	.db #0x06
   02E7 06                  887 	.db #0x06
   02E8 05                  888 	.db #0x05
   02E9 05                  889 	.db #0x05
   02EA 05                  890 	.db #0x05
   02EB 04                  891 	.db #0x04
   02EC 02                  892 	.db #0x02
   02ED 01                  893 	.db #0x01
   02EE 01                  894 	.db #0x01
   02EF 02                  895 	.db #0x02
   02F0 04                  896 	.db #0x04
   02F1 05                  897 	.db #0x05
   02F2 05                  898 	.db #0x05
   02F3 05                  899 	.db #0x05
   02F4 06                  900 	.db #0x06
   02F5 06                  901 	.db #0x06
   02F6 06                  902 	.db #0x06
   02F7 06                  903 	.db #0x06
   02F8 06                  904 	.db #0x06
   02F9 06                  905 	.db #0x06
   02FA 06                  906 	.db #0x06
   02FB 06                  907 	.db #0x06
   02FC 05                  908 	.db #0x05
   02FD 05                  909 	.db #0x05
   02FE 05                  910 	.db #0x05
   02FF 04                  911 	.db #0x04
   0300 02                  912 	.db #0x02
   0301 01                  913 	.db #0x01
   0302 01                  914 	.db #0x01
   0303 02                  915 	.db #0x02
   0304 04                  916 	.db #0x04
   0305 05                  917 	.db #0x05
   0306 05                  918 	.db #0x05
   0307 05                  919 	.db #0x05
   0308 06                  920 	.db #0x06
   0309 06                  921 	.db #0x06
   030A 06                  922 	.db #0x06
   030B 06                  923 	.db #0x06
   030C 06                  924 	.db #0x06
   030D 06                  925 	.db #0x06
   030E 06                  926 	.db #0x06
   030F 06                  927 	.db #0x06
   0310 05                  928 	.db #0x05
   0311 05                  929 	.db #0x05
   0312 05                  930 	.db #0x05
   0313 04                  931 	.db #0x04
   0314 02                  932 	.db #0x02
   0315 01                  933 	.db #0x01
   0316 01                  934 	.db #0x01
   0317 02                  935 	.db #0x02
   0318 04                  936 	.db #0x04
   0319 05                  937 	.db #0x05
   031A 05                  938 	.db #0x05
   031B 05                  939 	.db #0x05
   031C 06                  940 	.db #0x06
   031D 06                  941 	.db #0x06
   031E 06                  942 	.db #0x06
   031F 06                  943 	.db #0x06
   0320 06                  944 	.db #0x06
   0321 06                  945 	.db #0x06
   0322 06                  946 	.db #0x06
   0323 06                  947 	.db #0x06
   0324 05                  948 	.db #0x05
   0325 05                  949 	.db #0x05
   0326 05                  950 	.db #0x05
   0327 04                  951 	.db #0x04
   0328 02                  952 	.db #0x02
   0329 01                  953 	.db #0x01
   032A 01                  954 	.db #0x01
   032B 02                  955 	.db #0x02
   032C 04                  956 	.db #0x04
   032D 05                  957 	.db #0x05
   032E 05                  958 	.db #0x05
   032F 05                  959 	.db #0x05
   0330 06                  960 	.db #0x06
   0331 06                  961 	.db #0x06
   0332 06                  962 	.db #0x06
   0333 06                  963 	.db #0x06
   0334 06                  964 	.db #0x06
   0335 06                  965 	.db #0x06
   0336 06                  966 	.db #0x06
   0337 06                  967 	.db #0x06
   0338 05                  968 	.db #0x05
   0339 05                  969 	.db #0x05
   033A 05                  970 	.db #0x05
   033B 04                  971 	.db #0x04
   033C 02                  972 	.db #0x02
   033D 01                  973 	.db #0x01
   033E 01                  974 	.db #0x01
   033F 02                  975 	.db #0x02
   0340 04                  976 	.db #0x04
   0341 05                  977 	.db #0x05
   0342 05                  978 	.db #0x05
   0343 05                  979 	.db #0x05
   0344 06                  980 	.db #0x06
   0345 06                  981 	.db #0x06
   0346 06                  982 	.db #0x06
   0347 06                  983 	.db #0x06
   0348 06                  984 	.db #0x06
   0349 06                  985 	.db #0x06
   034A 06                  986 	.db #0x06
   034B 06                  987 	.db #0x06
   034C 05                  988 	.db #0x05
   034D 05                  989 	.db #0x05
   034E 05                  990 	.db #0x05
   034F 04                  991 	.db #0x04
   0350 02                  992 	.db #0x02
   0351 01                  993 	.db #0x01
   0352 01                  994 	.db #0x01
   0353 02                  995 	.db #0x02
   0354 04                  996 	.db #0x04
   0355 05                  997 	.db #0x05
   0356 05                  998 	.db #0x05
   0357 05                  999 	.db #0x05
   0358 06                 1000 	.db #0x06
   0359 06                 1001 	.db #0x06
   035A 06                 1002 	.db #0x06
   035B 06                 1003 	.db #0x06
   035C 06                 1004 	.db #0x06
   035D 06                 1005 	.db #0x06
   035E 06                 1006 	.db #0x06
   035F 06                 1007 	.db #0x06
   0360 05                 1008 	.db #0x05
   0361 05                 1009 	.db #0x05
   0362 05                 1010 	.db #0x05
   0363 04                 1011 	.db #0x04
   0364 02                 1012 	.db #0x02
   0365 01                 1013 	.db #0x01
   0366 01                 1014 	.db #0x01
   0367 02                 1015 	.db #0x02
   0368 04                 1016 	.db #0x04
   0369 05                 1017 	.db #0x05
   036A 05                 1018 	.db #0x05
   036B 05                 1019 	.db #0x05
   036C 06                 1020 	.db #0x06
   036D 06                 1021 	.db #0x06
   036E 06                 1022 	.db #0x06
   036F 06                 1023 	.db #0x06
   0370 06                 1024 	.db #0x06
   0371 06                 1025 	.db #0x06
   0372 06                 1026 	.db #0x06
   0373 06                 1027 	.db #0x06
   0374 05                 1028 	.db #0x05
   0375 05                 1029 	.db #0x05
   0376 05                 1030 	.db #0x05
   0377 04                 1031 	.db #0x04
   0378 02                 1032 	.db #0x02
   0379 01                 1033 	.db #0x01
   037A 01                 1034 	.db #0x01
   037B 02                 1035 	.db #0x02
   037C 04                 1036 	.db #0x04
   037D 05                 1037 	.db #0x05
   037E 05                 1038 	.db #0x05
   037F 05                 1039 	.db #0x05
   0380 06                 1040 	.db #0x06
   0381 06                 1041 	.db #0x06
   0382 06                 1042 	.db #0x06
   0383 06                 1043 	.db #0x06
   0384 06                 1044 	.db #0x06
   0385 06                 1045 	.db #0x06
   0386 06                 1046 	.db #0x06
   0387 06                 1047 	.db #0x06
   0388 05                 1048 	.db #0x05
   0389 05                 1049 	.db #0x05
   038A 05                 1050 	.db #0x05
   038B 04                 1051 	.db #0x04
   038C 02                 1052 	.db #0x02
   038D 01                 1053 	.db #0x01
   038E 01                 1054 	.db #0x01
   038F 02                 1055 	.db #0x02
   0390 04                 1056 	.db #0x04
   0391 05                 1057 	.db #0x05
   0392 05                 1058 	.db #0x05
   0393 05                 1059 	.db #0x05
   0394 06                 1060 	.db #0x06
   0395 06                 1061 	.db #0x06
   0396 06                 1062 	.db #0x06
   0397 06                 1063 	.db #0x06
   0398 06                 1064 	.db #0x06
   0399 06                 1065 	.db #0x06
   039A 06                 1066 	.db #0x06
   039B 06                 1067 	.db #0x06
   039C 05                 1068 	.db #0x05
   039D 05                 1069 	.db #0x05
   039E 05                 1070 	.db #0x05
   039F 04                 1071 	.db #0x04
   03A0 02                 1072 	.db #0x02
   03A1 01                 1073 	.db #0x01
   03A2 01                 1074 	.db #0x01
   03A3 02                 1075 	.db #0x02
   03A4 04                 1076 	.db #0x04
   03A5 05                 1077 	.db #0x05
   03A6 05                 1078 	.db #0x05
   03A7 05                 1079 	.db #0x05
   03A8 06                 1080 	.db #0x06
   03A9 06                 1081 	.db #0x06
   03AA 06                 1082 	.db #0x06
   03AB 06                 1083 	.db #0x06
   03AC 06                 1084 	.db #0x06
   03AD 06                 1085 	.db #0x06
   03AE 06                 1086 	.db #0x06
   03AF 06                 1087 	.db #0x06
   03B0 05                 1088 	.db #0x05
   03B1 05                 1089 	.db #0x05
   03B2 05                 1090 	.db #0x05
   03B3 04                 1091 	.db #0x04
   03B4 02                 1092 	.db #0x02
   03B5 01                 1093 	.db #0x01
   03B6 01                 1094 	.db #0x01
   03B7 02                 1095 	.db #0x02
   03B8 04                 1096 	.db #0x04
   03B9 05                 1097 	.db #0x05
   03BA 05                 1098 	.db #0x05
   03BB 05                 1099 	.db #0x05
   03BC 06                 1100 	.db #0x06
   03BD 06                 1101 	.db #0x06
   03BE 06                 1102 	.db #0x06
   03BF 06                 1103 	.db #0x06
   03C0 06                 1104 	.db #0x06
   03C1 06                 1105 	.db #0x06
   03C2 06                 1106 	.db #0x06
   03C3 06                 1107 	.db #0x06
   03C4 05                 1108 	.db #0x05
   03C5 05                 1109 	.db #0x05
   03C6 05                 1110 	.db #0x05
   03C7 04                 1111 	.db #0x04
   03C8 02                 1112 	.db #0x02
   03C9 01                 1113 	.db #0x01
   03CA 01                 1114 	.db #0x01
   03CB 02                 1115 	.db #0x02
   03CC 02                 1116 	.db #0x02
   03CD 02                 1117 	.db #0x02
   03CE 02                 1118 	.db #0x02
   03CF 02                 1119 	.db #0x02
   03D0 02                 1120 	.db #0x02
   03D1 02                 1121 	.db #0x02
   03D2 02                 1122 	.db #0x02
   03D3 02                 1123 	.db #0x02
   03D4 02                 1124 	.db #0x02
   03D5 02                 1125 	.db #0x02
   03D6 02                 1126 	.db #0x02
   03D7 02                 1127 	.db #0x02
   03D8 02                 1128 	.db #0x02
   03D9 02                 1129 	.db #0x02
   03DA 02                 1130 	.db #0x02
   03DB 02                 1131 	.db #0x02
   03DC 02                 1132 	.db #0x02
   03DD 01                 1133 	.db #0x01
   03DE 01                 1134 	.db #0x01
   03DF 01                 1135 	.db #0x01
   03E0 03                 1136 	.db #0x03
   03E1 03                 1137 	.db #0x03
   03E2 03                 1138 	.db #0x03
   03E3 03                 1139 	.db #0x03
   03E4 03                 1140 	.db #0x03
   03E5 03                 1141 	.db #0x03
   03E6 03                 1142 	.db #0x03
   03E7 03                 1143 	.db #0x03
   03E8 03                 1144 	.db #0x03
   03E9 03                 1145 	.db #0x03
   03EA 03                 1146 	.db #0x03
   03EB 03                 1147 	.db #0x03
   03EC 03                 1148 	.db #0x03
   03ED 03                 1149 	.db #0x03
   03EE 03                 1150 	.db #0x03
   03EF 03                 1151 	.db #0x03
   03F0 01                 1152 	.db #0x01
   03F1 01                 1153 	.db #0x01
   03F2                    1154 _PAL_PLAYER:
   03F2 00 00              1155 	.dw #0x0000
   03F4 E0 6F              1156 	.dw #0x6FE0
   03F6 80 46              1157 	.dw #0x4680
   03F8 00 00              1158 	.dw #0x0000
   03FA                    1159 _PAL_BG_SPOTS:
   03FA FF 57              1160 	.dw #0x57FF
   03FC BD 4B              1161 	.dw #0x4BBD
   03FE 00 00              1162 	.dw #0x0000
   0400 00 00              1163 	.dw #0x0000
   0402                    1164 _PAL_BG_POT:
   0402 FF 57              1165 	.dw #0x57FF
   0404 39 67              1166 	.dw #0x6739
   0406 BF 1E              1167 	.dw #0x1EBF
   0408 29 25              1168 	.dw #0x2529
   040A                    1169 _PAL_BG_POT_DARK:
   040A 00 00              1170 	.dw #0x0000
   040C 18 63              1171 	.dw #0x6318
   040E 00 00              1172 	.dw #0x0000
   0410 00 00              1173 	.dw #0x0000
   0412                    1174 _PAL_BG_POT_DARK_2:
   0412 00 00              1175 	.dw #0x0000
   0414 F7 5E              1176 	.dw #0x5EF7
   0416 00 00              1177 	.dw #0x0000
   0418 00 00              1178 	.dw #0x0000
   041A                    1179 _PAL_BG_POT_DARK_3:
   041A 00 00              1180 	.dw #0x0000
   041C D6 5A              1181 	.dw #0x5AD6
   041E 00 00              1182 	.dw #0x0000
   0420 00 00              1183 	.dw #0x0000
   0422                    1184 _PAL_BG_FIRE:
   0422 FF 57              1185 	.dw #0x57FF
   0424 FF 2B              1186 	.dw #0x2BFF
   0426 1F 00              1187 	.dw #0x001F
   0428 00 00              1188 	.dw #0x0000
                           1189 ;	src/food_spirit.c 52
                           1190 ;	genLabel
                           1191 ;	genFunction
                           1192 ;	---------------------------------
                           1193 ; Function player_jump_and_gravity
                           1194 ; ---------------------------------
   042A                    1195 ___player_jump_and_gravity_start:
   042A                    1196 _player_jump_and_gravity:
                           1197 	
                           1198 ;	src/food_spirit.c 53
                           1199 ;	genCmpGt
                           1200 ;	AOP_HL for _player_jump_frames
   042A 3E 00              1201 	ld	a,#0x00
   042C 21 04 00           1202 	ld	hl,#_player_jump_frames
   042F 96                 1203 	sub	a,(hl)
   0430 D2 34 04           1204 	jp	nc,00102$
                           1205 ;	src/food_spirit.c 54
                           1206 ;	genMinus
                           1207 ;	AOP_HL for _player_jump_frames
   0433 35                 1208 	dec	(hl)
                           1209 ;	genLabel
   0434                    1210 00102$:
                           1211 ;	src/food_spirit.c 57
                           1212 ;	genCmpGt
                           1213 ;	AOP_HL for _player_jump_frames
   0434 3E 06              1214 	ld	a,#0x06
   0436 21 04 00           1215 	ld	hl,#_player_jump_frames
   0439 96                 1216 	sub	a,(hl)
   043A D2 4D 04           1217 	jp	nc,00108$
                           1218 ;	src/food_spirit.c 58
                           1219 ;	genCmpGt
                           1220 ;	AOP_HL for _player_y
   043D 3E 24              1221 	ld	a,#0x24
   043F 21 01 00           1222 	ld	hl,#_player_y
   0442 96                 1223 	sub	a,(hl)
   0443 D2 59 04           1224 	jp	nc,00110$
                           1225 ;	src/food_spirit.c 59
                           1226 ;	genMinus
                           1227 ;	AOP_HL for _player_y
   0446 7E                 1228 	ld	a,(hl)
   0447 C6 FD              1229 	add	a,#0xFD
   0449 77                 1230 	ld	(hl),a
                           1231 ;	genGoto
   044A C3 59 04           1232 	jp	00110$
                           1233 ;	genLabel
   044D                    1234 00108$:
                           1235 ;	src/food_spirit.c 61
                           1236 ;	genCmpLt
                           1237 ;	AOP_HL for _player_y
   044D 21 01 00           1238 	ld	hl,#_player_y
   0450 7E                 1239 	ld	a,(hl)
   0451 FE 78              1240 	cp	#0x78
   0453 D2 59 04           1241 	jp	nc,00110$
                           1242 ;	src/food_spirit.c 62
                           1243 ;	genPlus
                           1244 ;	AOP_HL for _player_y
                           1245 ;	genPlusIncr
   0456 34                 1246 	inc	(hl)
   0457 34                 1247 	inc	(hl)
   0458 34                 1248 	inc	(hl)
                           1249 ;	genLabel
   0459                    1250 00110$:
                           1251 ;	genEndFunction
                           1252 	
   0459 C9                 1253 	ret
   045A                    1254 ___player_jump_and_gravity_end:
                           1255 ;	src/food_spirit.c 66
                           1256 ;	genLabel
                           1257 ;	genFunction
                           1258 ;	---------------------------------
                           1259 ; Function player_idle_anim
                           1260 ; ---------------------------------
   045A                    1261 ___player_idle_anim_start:
   045A                    1262 _player_idle_anim:
                           1263 	
                           1264 ;	src/food_spirit.c 67
                           1265 ;	genCmpLt
                           1266 ;	AOP_HL for _player_idle_anim_frames
   045A 21 05 00           1267 	ld	hl,#_player_idle_anim_frames
   045D 7E                 1268 	ld	a,(hl)
   045E D6 78              1269 	sub	a,#0x78
   0460 23                 1270 	inc	hl
   0461 7E                 1271 	ld	a,(hl)
   0462 DE 00              1272 	sbc	a,#0x00
   0464 D2 70 04           1273 	jp	nc,00102$
                           1274 ;	src/food_spirit.c 68
                           1275 ;	genPlus
                           1276 ;	AOP_HL for _player_idle_anim_frames
                           1277 ;	genPlusIncr
   0467 2B                 1278 	dec	hl
   0468 34                 1279 	inc	(hl)
   0469 20 02              1280 	jr	nz,00127$
   046B 23                 1281 	inc	hl
   046C 34                 1282 	inc	(hl)
   046D                    1283 00127$:
                           1284 ;	genGoto
   046D C3 78 04           1285 	jp	00103$
                           1286 ;	genLabel
   0470                    1287 00102$:
                           1288 ;	src/food_spirit.c 70
                           1289 ;	genAssign
                           1290 ;	AOP_HL for _player_idle_anim_frames
   0470 21 05 00           1291 	ld	hl,#_player_idle_anim_frames
   0473 36 00              1292 	ld	(hl),#0x00
   0475 23                 1293 	inc	hl
   0476 36 00              1294 	ld	(hl),#0x00
                           1295 ;	genLabel
   0478                    1296 00103$:
                           1297 ;	src/food_spirit.c 73
                           1298 ;	genCmpLt
                           1299 ;	AOP_HL for _player_idle_anim_frames
   0478 21 05 00           1300 	ld	hl,#_player_idle_anim_frames
   047B 7E                 1301 	ld	a,(hl)
   047C D6 14              1302 	sub	a,#0x14
   047E 23                 1303 	inc	hl
   047F 7E                 1304 	ld	a,(hl)
   0480 DE 00              1305 	sbc	a,#0x00
   0482 D2 8D 04           1306 	jp	nc,00117$
                           1307 ;	src/food_spirit.c 74
                           1308 ;	genAssign
                           1309 ;	AOP_HL for _player_y_draw_offset
   0485 21 02 00           1310 	ld	hl,#_player_y_draw_offset
   0488 36 FF              1311 	ld	(hl),#0xFF
                           1312 ;	genGoto
   048A C3 E6 04           1313 	jp	00119$
                           1314 ;	genLabel
   048D                    1315 00117$:
                           1316 ;	src/food_spirit.c 75
                           1317 ;	genCmpLt
                           1318 ;	AOP_HL for _player_idle_anim_frames
   048D 21 05 00           1319 	ld	hl,#_player_idle_anim_frames
   0490 7E                 1320 	ld	a,(hl)
   0491 D6 28              1321 	sub	a,#0x28
   0493 23                 1322 	inc	hl
   0494 7E                 1323 	ld	a,(hl)
   0495 DE 00              1324 	sbc	a,#0x00
   0497 D2 A2 04           1325 	jp	nc,00114$
                           1326 ;	src/food_spirit.c 76
                           1327 ;	genAssign
                           1328 ;	AOP_HL for _player_y_draw_offset
   049A 21 02 00           1329 	ld	hl,#_player_y_draw_offset
   049D 36 FE              1330 	ld	(hl),#0xFE
                           1331 ;	genGoto
   049F C3 E6 04           1332 	jp	00119$
                           1333 ;	genLabel
   04A2                    1334 00114$:
                           1335 ;	src/food_spirit.c 77
                           1336 ;	genCmpLt
                           1337 ;	AOP_HL for _player_idle_anim_frames
   04A2 21 05 00           1338 	ld	hl,#_player_idle_anim_frames
   04A5 7E                 1339 	ld	a,(hl)
   04A6 D6 3C              1340 	sub	a,#0x3C
   04A8 23                 1341 	inc	hl
   04A9 7E                 1342 	ld	a,(hl)
   04AA DE 00              1343 	sbc	a,#0x00
   04AC D2 B7 04           1344 	jp	nc,00111$
                           1345 ;	src/food_spirit.c 78
                           1346 ;	genAssign
                           1347 ;	AOP_HL for _player_y_draw_offset
   04AF 21 02 00           1348 	ld	hl,#_player_y_draw_offset
   04B2 36 FD              1349 	ld	(hl),#0xFD
                           1350 ;	genGoto
   04B4 C3 E6 04           1351 	jp	00119$
                           1352 ;	genLabel
   04B7                    1353 00111$:
                           1354 ;	src/food_spirit.c 79
                           1355 ;	genCmpLt
                           1356 ;	AOP_HL for _player_idle_anim_frames
   04B7 21 05 00           1357 	ld	hl,#_player_idle_anim_frames
   04BA 7E                 1358 	ld	a,(hl)
   04BB D6 50              1359 	sub	a,#0x50
   04BD 23                 1360 	inc	hl
   04BE 7E                 1361 	ld	a,(hl)
   04BF DE 00              1362 	sbc	a,#0x00
   04C1 D2 CC 04           1363 	jp	nc,00108$
                           1364 ;	src/food_spirit.c 80
                           1365 ;	genAssign
                           1366 ;	AOP_HL for _player_y_draw_offset
   04C4 21 02 00           1367 	ld	hl,#_player_y_draw_offset
   04C7 36 FE              1368 	ld	(hl),#0xFE
                           1369 ;	genGoto
   04C9 C3 E6 04           1370 	jp	00119$
                           1371 ;	genLabel
   04CC                    1372 00108$:
                           1373 ;	src/food_spirit.c 81
                           1374 ;	genCmpLt
                           1375 ;	AOP_HL for _player_idle_anim_frames
   04CC 21 05 00           1376 	ld	hl,#_player_idle_anim_frames
   04CF 7E                 1377 	ld	a,(hl)
   04D0 D6 64              1378 	sub	a,#0x64
   04D2 23                 1379 	inc	hl
   04D3 7E                 1380 	ld	a,(hl)
   04D4 DE 00              1381 	sbc	a,#0x00
   04D6 D2 E1 04           1382 	jp	nc,00105$
                           1383 ;	src/food_spirit.c 82
                           1384 ;	genAssign
                           1385 ;	AOP_HL for _player_y_draw_offset
   04D9 21 02 00           1386 	ld	hl,#_player_y_draw_offset
   04DC 36 FF              1387 	ld	(hl),#0xFF
                           1388 ;	genGoto
   04DE C3 E6 04           1389 	jp	00119$
                           1390 ;	genLabel
   04E1                    1391 00105$:
                           1392 ;	src/food_spirit.c 84
                           1393 ;	genAssign
                           1394 ;	AOP_HL for _player_y_draw_offset
   04E1 21 02 00           1395 	ld	hl,#_player_y_draw_offset
   04E4 36 00              1396 	ld	(hl),#0x00
                           1397 ;	genLabel
   04E6                    1398 00119$:
                           1399 ;	genEndFunction
                           1400 	
   04E6 C9                 1401 	ret
   04E7                    1402 ___player_idle_anim_end:
                           1403 ;	src/food_spirit.c 88
                           1404 ;	genLabel
                           1405 ;	genFunction
                           1406 ;	---------------------------------
                           1407 ; Function draw_player
                           1408 ; ---------------------------------
   04E7                    1409 ___draw_player_start:
   04E7                    1410 _draw_player:
   04E7 E8 FF              1411 	lda	sp,-1(sp)
                           1412 ;	src/food_spirit.c 91
                           1413 ;	genCmpEq
                           1414 ;	AOP_HL for _player_dir
                           1415 ; genCmpEq: left 1, right 1, result 0
   04E9 21 03 00           1416 	ld	hl,#_player_dir
   04EC 7E                 1417 	ld	a,(hl)
   04ED B7                 1418 	or	a,a
   04EE C2 F9 04           1419 	jp	nz,00102$
   04F1 18 03              1420 	jr	00107$
   04F3                    1421 00106$:
   04F3 C3 F9 04           1422 	jp	00102$
   04F6                    1423 00107$:
                           1424 ;	src/food_spirit.c 92
                           1425 ;	genCall
                           1426 ; _saveRegsForCall: sendSetSize: 0 deInUse: 0 bcInUse: 0 deSending: 0
   04F6 CD 5A 04           1427 	call	_player_idle_anim
                           1428 ;	genLabel
   04F9                    1429 00102$:
                           1430 ;	src/food_spirit.c 94
                           1431 ;	genPlus
                           1432 ;	AOP_HL for _player_y
                           1433 ;	AOP_HL for _player_y_draw_offset
                           1434 ;	Can't optimise plus by inc, falling back to the normal way
   04F9 21 01 00           1435 	ld	hl,#_player_y
   04FC 7E                 1436 	ld	a,(hl)
   04FD 21 02 00           1437 	ld	hl,#_player_y_draw_offset
   0500 86                 1438 	add	a,(hl)
   0501 4F                 1439 	ld	c,a
                           1440 ;	genAssign
                           1441 ;	(registers are the same)
                           1442 ;	src/food_spirit.c 96
                           1443 ;	genIpush
                           1444 ; _saveRegsForCall: sendSetSize: 0 deInUse: 0 bcInUse: 1 deSending: 0
   0502 C5                 1445 	push	bc
   0503 79                 1446 	ld	a,c
   0504 F5                 1447 	push	af
   0505 33                 1448 	inc	sp
                           1449 ;	genIpush
                           1450 ;	AOP_HL for _player_x
   0506 21 00 00           1451 	ld	hl,#_player_x
   0509 7E                 1452 	ld	a,(hl)
   050A F5                 1453 	push	af
   050B 33                 1454 	inc	sp
                           1455 ;	genIpush
   050C 3E 00              1456 	ld	a,#0x00
   050E F5                 1457 	push	af
   050F 33                 1458 	inc	sp
                           1459 ;	genCall
   0510 CD 00 00           1460 	call	_move_sprite
   0513 E8 03              1461 	lda	sp,3(sp)
   0515 E1                 1462 	pop	hl
   0516 4D                 1463 	ld	c,l
                           1464 ;	src/food_spirit.c 97
                           1465 ;	genPlus
                           1466 ;	AOP_HL for _player_x
                           1467 ;	genPlusIncr
                           1468 ;	Can't optimise plus by inc, falling back to the normal way
   0517 21 00 00           1469 	ld	hl,#_player_x
   051A 7E                 1470 	ld	a,(hl)
   051B C6 08              1471 	add	a,#0x08
   051D 47                 1472 	ld	b,a
                           1473 ;	genIpush
                           1474 ; _saveRegsForCall: sendSetSize: 0 deInUse: 0 bcInUse: 1 deSending: 0
   051E C5                 1475 	push	bc
   051F 79                 1476 	ld	a,c
   0520 F5                 1477 	push	af
   0521 33                 1478 	inc	sp
                           1479 ;	genIpush
   0522 78                 1480 	ld	a,b
   0523 F5                 1481 	push	af
   0524 33                 1482 	inc	sp
                           1483 ;	genIpush
   0525 3E 01              1484 	ld	a,#0x01
   0527 F5                 1485 	push	af
   0528 33                 1486 	inc	sp
                           1487 ;	genCall
   0529 CD 00 00           1488 	call	_move_sprite
   052C E8 03              1489 	lda	sp,3(sp)
   052E C1                 1490 	pop	bc
                           1491 ;	src/food_spirit.c 98
                           1492 ;	genPlus
                           1493 ;	AOP_STK for _draw_player_sloc0_1_0
                           1494 ;	genPlusIncr
                           1495 ;	Can't optimise plus by inc, falling back to the normal way
   052F 79                 1496 	ld	a,c
   0530 C6 08              1497 	add	a,#0x08
   0532 F8 00              1498 	lda	hl,0(sp)
   0534 77                 1499 	ld	(hl),a
                           1500 ;	genIpush
                           1501 ; _saveRegsForCall: sendSetSize: 0 deInUse: 0 bcInUse: 1 deSending: 0
   0535 C5                 1502 	push	bc
                           1503 ;	AOP_STK for _draw_player_sloc0_1_0
   0536 7E                 1504 	ld	a,(hl)
   0537 F5                 1505 	push	af
   0538 33                 1506 	inc	sp
                           1507 ;	genIpush
                           1508 ;	AOP_HL for _player_x
   0539 21 00 00           1509 	ld	hl,#_player_x
   053C 7E                 1510 	ld	a,(hl)
   053D F5                 1511 	push	af
   053E 33                 1512 	inc	sp
                           1513 ;	genIpush
   053F 3E 02              1514 	ld	a,#0x02
   0541 F5                 1515 	push	af
   0542 33                 1516 	inc	sp
                           1517 ;	genCall
   0543 CD 00 00           1518 	call	_move_sprite
   0546 E8 03              1519 	lda	sp,3(sp)
   0548 C1                 1520 	pop	bc
                           1521 ;	src/food_spirit.c 99
                           1522 ;	genIpush
                           1523 ; _saveRegsForCall: sendSetSize: 0 deInUse: 0 bcInUse: 1 deSending: 0
   0549 C5                 1524 	push	bc
                           1525 ;	AOP_STK for _draw_player_sloc0_1_0
   054A F8 02              1526 	lda	hl,2(sp)
   054C 7E                 1527 	ld	a,(hl)
   054D F5                 1528 	push	af
   054E 33                 1529 	inc	sp
                           1530 ;	genIpush
   054F 78                 1531 	ld	a,b
   0550 F5                 1532 	push	af
   0551 33                 1533 	inc	sp
                           1534 ;	genIpush
   0552 3E 03              1535 	ld	a,#0x03
   0554 F5                 1536 	push	af
   0555 33                 1537 	inc	sp
                           1538 ;	genCall
   0556 CD 00 00           1539 	call	_move_sprite
   0559 E8 03              1540 	lda	sp,3(sp)
   055B C1                 1541 	pop	bc
                           1542 ;	src/food_spirit.c 100
                           1543 ;	genPlus
                           1544 ;	genPlusIncr
                           1545 ;	Can't optimise plus by inc, falling back to the normal way
   055C 79                 1546 	ld	a,c
   055D C6 10              1547 	add	a,#0x10
   055F 4F                 1548 	ld	c,a
                           1549 ;	genIpush
                           1550 ; _saveRegsForCall: sendSetSize: 0 deInUse: 0 bcInUse: 1 deSending: 0
   0560 C5                 1551 	push	bc
   0561 79                 1552 	ld	a,c
   0562 F5                 1553 	push	af
   0563 33                 1554 	inc	sp
                           1555 ;	genIpush
                           1556 ;	AOP_HL for _player_x
   0564 21 00 00           1557 	ld	hl,#_player_x
   0567 7E                 1558 	ld	a,(hl)
   0568 F5                 1559 	push	af
   0569 33                 1560 	inc	sp
                           1561 ;	genIpush
   056A 3E 04              1562 	ld	a,#0x04
   056C F5                 1563 	push	af
   056D 33                 1564 	inc	sp
                           1565 ;	genCall
   056E CD 00 00           1566 	call	_move_sprite
   0571 E8 03              1567 	lda	sp,3(sp)
   0573 C1                 1568 	pop	bc
                           1569 ;	src/food_spirit.c 101
                           1570 ;	genIpush
                           1571 ; _saveRegsForCall: sendSetSize: 0 deInUse: 0 bcInUse: 0 deSending: 0
   0574 79                 1572 	ld	a,c
   0575 F5                 1573 	push	af
   0576 33                 1574 	inc	sp
                           1575 ;	genIpush
   0577 78                 1576 	ld	a,b
   0578 F5                 1577 	push	af
   0579 33                 1578 	inc	sp
                           1579 ;	genIpush
   057A 3E 05              1580 	ld	a,#0x05
   057C F5                 1581 	push	af
   057D 33                 1582 	inc	sp
                           1583 ;	genCall
   057E CD 00 00           1584 	call	_move_sprite
   0581 E8 03              1585 	lda	sp,3(sp)
                           1586 ;	genLabel
   0583                    1587 00103$:
                           1588 ;	genEndFunction
   0583 E8 01              1589 	lda	sp,1(sp)
   0585 C9                 1590 	ret
   0586                    1591 ___draw_player_end:
                           1592 ;	src/food_spirit.c 104
                           1593 ;	genLabel
                           1594 ;	genFunction
                           1595 ;	---------------------------------
                           1596 ; Function game_loop
                           1597 ; ---------------------------------
   0586                    1598 ___game_loop_start:
   0586                    1599 _game_loop:
                           1600 	
                           1601 ;	src/food_spirit.c 105
                           1602 ;	genCall
                           1603 ; _saveRegsForCall: sendSetSize: 0 deInUse: 0 bcInUse: 0 deSending: 0
   0586 CD 00 00           1604 	call	_read_controls
                           1605 ;	src/food_spirit.c 107
                           1606 ;	genCall
                           1607 ; _saveRegsForCall: sendSetSize: 0 deInUse: 0 bcInUse: 0 deSending: 0
   0589 CD 2A 04           1608 	call	_player_jump_and_gravity
                           1609 ;	src/food_spirit.c 108
                           1610 ;	genCall
                           1611 ; _saveRegsForCall: sendSetSize: 0 deInUse: 0 bcInUse: 0 deSending: 0
   058C CD E7 04           1612 	call	_draw_player
                           1613 ;	genLabel
   058F                    1614 00101$:
                           1615 ;	genEndFunction
                           1616 	
   058F C9                 1617 	ret
   0590                    1618 ___game_loop_end:
                           1619 ;	src/food_spirit.c 111
                           1620 ;	genLabel
                           1621 ;	genFunction
                           1622 ;	---------------------------------
                           1623 ; Function init_player
                           1624 ; ---------------------------------
   0590                    1625 ___init_player_start:
   0590                    1626 _init_player:
                           1627 	
                           1628 ;	src/food_spirit.c 112
                           1629 ;	genAssign
                           1630 ;	AOP_HL for _player_x
   0590 21 00 00           1631 	ld	hl,#_player_x
   0593 36 28              1632 	ld	(hl),#0x28
                           1633 ;	src/food_spirit.c 113
                           1634 ;	genAssign
                           1635 ;	AOP_HL for _player_y
   0595 21 01 00           1636 	ld	hl,#_player_y
   0598 36 28              1637 	ld	(hl),#0x28
                           1638 ;	src/food_spirit.c 114
                           1639 ;	genAssign
                           1640 ;	AOP_HL for _player_jump_frames
   059A 21 04 00           1641 	ld	hl,#_player_jump_frames
   059D 36 00              1642 	ld	(hl),#0x00
                           1643 ;	src/food_spirit.c 115
                           1644 ;	genAssign
                           1645 ;	AOP_HL for _player_idle_anim_frames
   059F 21 05 00           1646 	ld	hl,#_player_idle_anim_frames
   05A2 36 00              1647 	ld	(hl),#0x00
   05A4 23                 1648 	inc	hl
   05A5 36 00              1649 	ld	(hl),#0x00
                           1650 ;	src/food_spirit.c 116
                           1651 ;	genAssign
                           1652 ;	AOP_HL for _player_y_draw_offset
   05A7 21 02 00           1653 	ld	hl,#_player_y_draw_offset
   05AA 36 00              1654 	ld	(hl),#0x00
                           1655 ;	src/food_spirit.c 118
                           1656 ;	genIpush
                           1657 ; _saveRegsForCall: sendSetSize: 0 deInUse: 0 bcInUse: 0 deSending: 0
   05AC 21 F2 03           1658 	ld	hl,#_PAL_PLAYER
   05AF E5                 1659 	push	hl
                           1660 ;	genIpush
   05B0 21 5A 00           1661 	ld	hl,#_SPR_DAT_PLAYER_0_0_MID
   05B3 E5                 1662 	push	hl
                           1663 ;	genIpush
   05B4 21 00 00           1664 	ld	hl,#0x0000
   05B7 E5                 1665 	push	hl
                           1666 ;	genCall
   05B8 CD 00 00           1667 	call	_set_up_sprite_simple
   05BB E8 06              1668 	lda	sp,6(sp)
                           1669 ;	src/food_spirit.c 119
                           1670 ;	genIpush
                           1671 ; _saveRegsForCall: sendSetSize: 0 deInUse: 0 bcInUse: 0 deSending: 0
   05BD 21 F2 03           1672 	ld	hl,#_PAL_PLAYER
   05C0 E5                 1673 	push	hl
                           1674 ;	genIpush
   05C1 21 6A 00           1675 	ld	hl,#_SPR_DAT_PLAYER_1_0_MID
   05C4 E5                 1676 	push	hl
                           1677 ;	genIpush
   05C5 21 01 00           1678 	ld	hl,#0x0001
   05C8 E5                 1679 	push	hl
                           1680 ;	genCall
   05C9 CD 00 00           1681 	call	_set_up_sprite_simple
   05CC E8 06              1682 	lda	sp,6(sp)
                           1683 ;	src/food_spirit.c 120
                           1684 ;	genIpush
                           1685 ; _saveRegsForCall: sendSetSize: 0 deInUse: 0 bcInUse: 0 deSending: 0
   05CE 21 F2 03           1686 	ld	hl,#_PAL_PLAYER
   05D1 E5                 1687 	push	hl
                           1688 ;	genIpush
   05D2 21 7A 00           1689 	ld	hl,#_SPR_DAT_PLAYER_0_1_MID
   05D5 E5                 1690 	push	hl
                           1691 ;	genIpush
   05D6 21 02 00           1692 	ld	hl,#0x0002
   05D9 E5                 1693 	push	hl
                           1694 ;	genCall
   05DA CD 00 00           1695 	call	_set_up_sprite_simple
   05DD E8 06              1696 	lda	sp,6(sp)
                           1697 ;	src/food_spirit.c 121
                           1698 ;	genIpush
                           1699 ; _saveRegsForCall: sendSetSize: 0 deInUse: 0 bcInUse: 0 deSending: 0
   05DF 21 F2 03           1700 	ld	hl,#_PAL_PLAYER
   05E2 E5                 1701 	push	hl
                           1702 ;	genIpush
   05E3 21 8A 00           1703 	ld	hl,#_SPR_DAT_PLAYER_1_1_MID
   05E6 E5                 1704 	push	hl
                           1705 ;	genIpush
   05E7 21 03 00           1706 	ld	hl,#0x0003
   05EA E5                 1707 	push	hl
                           1708 ;	genCall
   05EB CD 00 00           1709 	call	_set_up_sprite_simple
   05EE E8 06              1710 	lda	sp,6(sp)
                           1711 ;	src/food_spirit.c 122
                           1712 ;	genIpush
                           1713 ; _saveRegsForCall: sendSetSize: 0 deInUse: 0 bcInUse: 0 deSending: 0
   05F0 21 F2 03           1714 	ld	hl,#_PAL_PLAYER
   05F3 E5                 1715 	push	hl
                           1716 ;	genIpush
   05F4 21 9A 00           1717 	ld	hl,#_SPR_DAT_PLAYER_0_2_MID
   05F7 E5                 1718 	push	hl
                           1719 ;	genIpush
   05F8 21 04 00           1720 	ld	hl,#0x0004
   05FB E5                 1721 	push	hl
                           1722 ;	genCall
   05FC CD 00 00           1723 	call	_set_up_sprite_simple
   05FF E8 06              1724 	lda	sp,6(sp)
                           1725 ;	src/food_spirit.c 123
                           1726 ;	genIpush
                           1727 ; _saveRegsForCall: sendSetSize: 0 deInUse: 0 bcInUse: 0 deSending: 0
   0601 21 F2 03           1728 	ld	hl,#_PAL_PLAYER
   0604 E5                 1729 	push	hl
                           1730 ;	genIpush
   0605 21 AA 00           1731 	ld	hl,#_SPR_DAT_PLAYER_1_2_MID
   0608 E5                 1732 	push	hl
                           1733 ;	genIpush
   0609 21 05 00           1734 	ld	hl,#0x0005
   060C E5                 1735 	push	hl
                           1736 ;	genCall
   060D CD 00 00           1737 	call	_set_up_sprite_simple
   0610 E8 06              1738 	lda	sp,6(sp)
                           1739 ;	genLabel
   0612                    1740 00101$:
                           1741 ;	genEndFunction
                           1742 	
   0612 C9                 1743 	ret
   0613                    1744 ___init_player_end:
                           1745 ;	src/food_spirit.c 126
                           1746 ;	genLabel
                           1747 ;	genFunction
                           1748 ;	---------------------------------
                           1749 ; Function init_bg
                           1750 ; ---------------------------------
   0613                    1751 ___init_bg_start:
   0613                    1752 _init_bg:
                           1753 	
                           1754 ;	src/food_spirit.c 127
                           1755 ;	genIpush
                           1756 ; _saveRegsForCall: sendSetSize: 0 deInUse: 0 bcInUse: 0 deSending: 0
   0613 21 FA 03           1757 	ld	hl,#_PAL_BG_SPOTS
   0616 E5                 1758 	push	hl
                           1759 ;	genIpush
   0617 21 01 01           1760 	ld	hl,#0x0101
   061A E5                 1761 	push	hl
                           1762 ;	genCall
   061B CD 00 00           1763 	call	_set_bkg_palette
   061E E8 04              1764 	lda	sp,4(sp)
                           1765 ;	src/food_spirit.c 128
                           1766 ;	genIpush
                           1767 ; _saveRegsForCall: sendSetSize: 0 deInUse: 0 bcInUse: 0 deSending: 0
   0620 21 02 04           1768 	ld	hl,#_PAL_BG_POT
   0623 E5                 1769 	push	hl
                           1770 ;	genIpush
   0624 21 02 01           1771 	ld	hl,#0x0102
   0627 E5                 1772 	push	hl
                           1773 ;	genCall
   0628 CD 00 00           1774 	call	_set_bkg_palette
   062B E8 04              1775 	lda	sp,4(sp)
                           1776 ;	src/food_spirit.c 129
                           1777 ;	genIpush
                           1778 ; _saveRegsForCall: sendSetSize: 0 deInUse: 0 bcInUse: 0 deSending: 0
   062D 21 22 04           1779 	ld	hl,#_PAL_BG_FIRE
   0630 E5                 1780 	push	hl
                           1781 ;	genIpush
   0631 21 03 01           1782 	ld	hl,#0x0103
   0634 E5                 1783 	push	hl
                           1784 ;	genCall
   0635 CD 00 00           1785 	call	_set_bkg_palette
   0638 E8 04              1786 	lda	sp,4(sp)
                           1787 ;	src/food_spirit.c 130
                           1788 ;	genIpush
                           1789 ; _saveRegsForCall: sendSetSize: 0 deInUse: 0 bcInUse: 0 deSending: 0
   063A 21 0A 04           1790 	ld	hl,#_PAL_BG_POT_DARK
   063D E5                 1791 	push	hl
                           1792 ;	genIpush
   063E 21 04 01           1793 	ld	hl,#0x0104
   0641 E5                 1794 	push	hl
                           1795 ;	genCall
   0642 CD 00 00           1796 	call	_set_bkg_palette
   0645 E8 04              1797 	lda	sp,4(sp)
                           1798 ;	src/food_spirit.c 131
                           1799 ;	genIpush
                           1800 ; _saveRegsForCall: sendSetSize: 0 deInUse: 0 bcInUse: 0 deSending: 0
   0647 21 12 04           1801 	ld	hl,#_PAL_BG_POT_DARK_2
   064A E5                 1802 	push	hl
                           1803 ;	genIpush
   064B 21 05 01           1804 	ld	hl,#0x0105
   064E E5                 1805 	push	hl
                           1806 ;	genCall
   064F CD 00 00           1807 	call	_set_bkg_palette
   0652 E8 04              1808 	lda	sp,4(sp)
                           1809 ;	src/food_spirit.c 132
                           1810 ;	genIpush
                           1811 ; _saveRegsForCall: sendSetSize: 0 deInUse: 0 bcInUse: 0 deSending: 0
   0654 21 1A 04           1812 	ld	hl,#_PAL_BG_POT_DARK_3
   0657 E5                 1813 	push	hl
                           1814 ;	genIpush
   0658 21 06 01           1815 	ld	hl,#0x0106
   065B E5                 1816 	push	hl
                           1817 ;	genCall
   065C CD 00 00           1818 	call	_set_bkg_palette
   065F E8 04              1819 	lda	sp,4(sp)
                           1820 ;	src/food_spirit.c 134
                           1821 ;	genIpush
                           1822 ; _saveRegsForCall: sendSetSize: 0 deInUse: 0 bcInUse: 0 deSending: 0
   0661 21 DA 00           1823 	ld	hl,#_TILE_SPOTS
   0664 E5                 1824 	push	hl
                           1825 ;	genIpush
   0665 21 01 01           1826 	ld	hl,#0x0101
   0668 E5                 1827 	push	hl
                           1828 ;	genCall
   0669 CD 00 00           1829 	call	_set_bkg_data
   066C E8 04              1830 	lda	sp,4(sp)
                           1831 ;	src/food_spirit.c 135
                           1832 ;	genIpush
                           1833 ; _saveRegsForCall: sendSetSize: 0 deInUse: 0 bcInUse: 0 deSending: 0
   066E 21 EA 00           1834 	ld	hl,#_TILE_POT_FLOOR
   0671 E5                 1835 	push	hl
                           1836 ;	genIpush
   0672 21 02 01           1837 	ld	hl,#0x0102
   0675 E5                 1838 	push	hl
                           1839 ;	genCall
   0676 CD 00 00           1840 	call	_set_bkg_data
   0679 E8 04              1841 	lda	sp,4(sp)
                           1842 ;	src/food_spirit.c 136
                           1843 ;	genIpush
                           1844 ; _saveRegsForCall: sendSetSize: 0 deInUse: 0 bcInUse: 0 deSending: 0
   067B 21 FA 00           1845 	ld	hl,#_TILE_POT_LEFT_CORNER
   067E E5                 1846 	push	hl
                           1847 ;	genIpush
   067F 21 03 01           1848 	ld	hl,#0x0103
   0682 E5                 1849 	push	hl
                           1850 ;	genCall
   0683 CD 00 00           1851 	call	_set_bkg_data
   0686 E8 04              1852 	lda	sp,4(sp)
                           1853 ;	src/food_spirit.c 137
                           1854 ;	genIpush
                           1855 ; _saveRegsForCall: sendSetSize: 0 deInUse: 0 bcInUse: 0 deSending: 0
   0688 21 0A 01           1856 	ld	hl,#_TILE_POT_RIGHT_CORNER
   068B E5                 1857 	push	hl
                           1858 ;	genIpush
   068C 21 04 01           1859 	ld	hl,#0x0104
   068F E5                 1860 	push	hl
                           1861 ;	genCall
   0690 CD 00 00           1862 	call	_set_bkg_data
   0693 E8 04              1863 	lda	sp,4(sp)
                           1864 ;	src/food_spirit.c 138
                           1865 ;	genIpush
                           1866 ; _saveRegsForCall: sendSetSize: 0 deInUse: 0 bcInUse: 0 deSending: 0
   0695 21 1A 01           1867 	ld	hl,#_TILE_POT_LEFT_WALL
   0698 E5                 1868 	push	hl
                           1869 ;	genIpush
   0699 21 05 01           1870 	ld	hl,#0x0105
   069C E5                 1871 	push	hl
                           1872 ;	genCall
   069D CD 00 00           1873 	call	_set_bkg_data
   06A0 E8 04              1874 	lda	sp,4(sp)
                           1875 ;	src/food_spirit.c 139
                           1876 ;	genIpush
                           1877 ; _saveRegsForCall: sendSetSize: 0 deInUse: 0 bcInUse: 0 deSending: 0
   06A2 21 2A 01           1878 	ld	hl,#_TILE_POT_RIGHT_WALL
   06A5 E5                 1879 	push	hl
                           1880 ;	genIpush
   06A6 21 06 01           1881 	ld	hl,#0x0106
   06A9 E5                 1882 	push	hl
                           1883 ;	genCall
   06AA CD 00 00           1884 	call	_set_bkg_data
   06AD E8 04              1885 	lda	sp,4(sp)
                           1886 ;	src/food_spirit.c 140
                           1887 ;	genIpush
                           1888 ; _saveRegsForCall: sendSetSize: 0 deInUse: 0 bcInUse: 0 deSending: 0
   06AF 21 3A 01           1889 	ld	hl,#_TILE_FIRE
   06B2 E5                 1890 	push	hl
                           1891 ;	genIpush
   06B3 21 07 01           1892 	ld	hl,#0x0107
   06B6 E5                 1893 	push	hl
                           1894 ;	genCall
   06B7 CD 00 00           1895 	call	_set_bkg_data
   06BA E8 04              1896 	lda	sp,4(sp)
                           1897 ;	src/food_spirit.c 141
                           1898 ;	genIpush
                           1899 ; _saveRegsForCall: sendSetSize: 0 deInUse: 0 bcInUse: 0 deSending: 0
   06BC 21 CA 00           1900 	ld	hl,#_TILE_BLANK_LIGHT
   06BF E5                 1901 	push	hl
                           1902 ;	genIpush
   06C0 21 08 01           1903 	ld	hl,#0x0108
   06C3 E5                 1904 	push	hl
                           1905 ;	genCall
   06C4 CD 00 00           1906 	call	_set_bkg_data
   06C7 E8 04              1907 	lda	sp,4(sp)
                           1908 ;	src/food_spirit.c 143
                           1909 ;	genIpush
                           1910 ; _saveRegsForCall: sendSetSize: 0 deInUse: 0 bcInUse: 0 deSending: 0
   06C9 21 9E 02           1911 	ld	hl,#_MAP_PAL_BG_1
   06CC E5                 1912 	push	hl
                           1913 ;	genIpush
   06CD 21 4A 01           1914 	ld	hl,#_MAP_BG_1
   06D0 E5                 1915 	push	hl
                           1916 ;	genIpush
   06D1 21 11 00           1917 	ld	hl,#0x0011
   06D4 E5                 1918 	push	hl
                           1919 ;	genIpush
   06D5 21 14 00           1920 	ld	hl,#0x0014
   06D8 E5                 1921 	push	hl
                           1922 ;	genIpush
   06D9 21 01 00           1923 	ld	hl,#0x0001
   06DC E5                 1924 	push	hl
                           1925 ;	genIpush
   06DD 21 00 00           1926 	ld	hl,#0x0000
   06E0 E5                 1927 	push	hl
                           1928 ;	genCall
   06E1 CD 00 00           1929 	call	_set_up_bg
   06E4 E8 0C              1930 	lda	sp,12(sp)
                           1931 ;	genLabel
   06E6                    1932 00101$:
                           1933 ;	genEndFunction
                           1934 	
   06E6 C9                 1935 	ret
   06E7                    1936 ___init_bg_end:
                           1937 ;	src/food_spirit.c 146
                           1938 ;	genLabel
                           1939 ;	genFunction
                           1940 ;	---------------------------------
                           1941 ; Function initialize
                           1942 ; ---------------------------------
   06E7                    1943 ___initialize_start:
   06E7                    1944 _initialize:
   06E7 E8 FD              1945 	lda	sp,-3(sp)
                           1946 ;	src/food_spirit.c 147
                           1947 ;	genCall
                           1948 ; _saveRegsForCall: sendSetSize: 0 deInUse: 0 bcInUse: 0 deSending: 0
   06E9 CD 00 00           1949 	call	_cgb_compatibility
                           1950 ;	src/food_spirit.c 149
                           1951 ;	genCall
                           1952 ; _saveRegsForCall: sendSetSize: 0 deInUse: 0 bcInUse: 0 deSending: 0
   06EC CD 13 06           1953 	call	_init_bg
                           1954 ;	src/food_spirit.c 150
                           1955 ;	genCall
                           1956 ; _saveRegsForCall: sendSetSize: 0 deInUse: 0 bcInUse: 0 deSending: 0
   06EF CD 90 05           1957 	call	_init_player
                           1958 ;	src/food_spirit.c 152
                           1959 ;	genAssign
   06F2 01 40 FF           1960 	ld	bc,#0xFF40
                           1961 ;	genAssign
                           1962 ;	AOP_STK for _initialize_sloc0_1_0
   06F5 F8 01              1963 	lda	hl,1(sp)
   06F7 36 40              1964 	ld	(hl),#0x40
   06F9 23                 1965 	inc	hl
   06FA 36 FF              1966 	ld	(hl),#0xFF
                           1967 ;	genPointerGet
                           1968 ;	AOP_STK for _initialize_sloc0_1_0
                           1969 ;	AOP_STK for _initialize_sloc1_1_0
   06FC 2B                 1970 	dec	hl
   06FD 5E                 1971 	ld	e,(hl)
   06FE 23                 1972 	inc	hl
   06FF 56                 1973 	ld	d,(hl)
   0700 1A                 1974 	ld	a,(de)
   0701 2B                 1975 	dec	hl
   0702 2B                 1976 	dec	hl
                           1977 ;	genOr
                           1978 ;	AOP_STK for _initialize_sloc1_1_0
   0703 77                 1979 	ld      (hl),a
   0704 7F                 1980 	ld      a,a
   0705 F6 01              1981 	or	a,#0x01
                           1982 ;	genAssign (pointer)
   0707 02                 1983 	ld	(bc),a
                           1984 ;	src/food_spirit.c 153
                           1985 ;	genAssign
   0708 01 40 FF           1986 	ld	bc,#0xFF40
                           1987 ;	genAssign
                           1988 ;	AOP_STK for _initialize_sloc0_1_0
   070B 23                 1989 	inc	hl
   070C 36 40              1990 	ld	(hl),#0x40
   070E 23                 1991 	inc	hl
   070F 36 FF              1992 	ld	(hl),#0xFF
                           1993 ;	genPointerGet
                           1994 ;	AOP_STK for _initialize_sloc0_1_0
                           1995 ;	AOP_STK for _initialize_sloc1_1_0
   0711 2B                 1996 	dec	hl
   0712 5E                 1997 	ld	e,(hl)
   0713 23                 1998 	inc	hl
   0714 56                 1999 	ld	d,(hl)
   0715 1A                 2000 	ld	a,(de)
   0716 2B                 2001 	dec	hl
   0717 2B                 2002 	dec	hl
                           2003 ;	genOr
                           2004 ;	AOP_STK for _initialize_sloc1_1_0
   0718 77                 2005 	ld      (hl),a
   0719 7F                 2006 	ld      a,a
   071A F6 02              2007 	or	a,#0x02
                           2008 ;	genAssign (pointer)
   071C 02                 2009 	ld	(bc),a
                           2010 ;	genLabel
   071D                    2011 00101$:
                           2012 ;	genEndFunction
   071D E8 03              2013 	lda	sp,3(sp)
   071F C9                 2014 	ret
   0720                    2015 ___initialize_end:
                           2016 ;	src/food_spirit.c 156
                           2017 ;	genLabel
                           2018 ;	genFunction
                           2019 ;	---------------------------------
                           2020 ; Function main
                           2021 ; ---------------------------------
   0720                    2022 ___main_start:
   0720                    2023 _main:
                           2024 	
                           2025 ;	src/food_spirit.c 157
                           2026 ;	genCall
                           2027 ; _saveRegsForCall: sendSetSize: 0 deInUse: 0 bcInUse: 0 deSending: 0
   0720 CD 00 00           2028 	call	_wait_vbl_done
                           2029 ;	src/food_spirit.c 158
                           2030 ;	genCall
                           2031 ; _saveRegsForCall: sendSetSize: 0 deInUse: 0 bcInUse: 0 deSending: 0
   0723 CD E7 06           2032 	call	_initialize
                           2033 ;	src/food_spirit.c 160
                           2034 ;	genLabel
   0726                    2035 00102$:
                           2036 ;	src/food_spirit.c 161
                           2037 ;	genCall
                           2038 ; _saveRegsForCall: sendSetSize: 0 deInUse: 0 bcInUse: 0 deSending: 0
   0726 CD 00 00           2039 	call	_wait_vbl_done
                           2040 ;	src/food_spirit.c 162
                           2041 ;	genCall
                           2042 ; _saveRegsForCall: sendSetSize: 0 deInUse: 0 bcInUse: 0 deSending: 0
   0729 CD 86 05           2043 	call	_game_loop
                           2044 ;	genGoto
   072C C3 26 07           2045 	jp	00102$
                           2046 ;	genLabel
   072F                    2047 00104$:
                           2048 ;	genEndFunction
                           2049 	
   072F C9                 2050 	ret
   0730                    2051 ___main_end:
                           2052 	.area _CODE
ASxxxx Assembler V01.75  (GameBoy Z80-like CPU), page 1.

Symbol Table

  0 _MAP_BG_1                          014A GR
  0 _MAP_PAL_BG_1                      029E GR
  0 _PAL_BG_FIRE                       0422 GR
  0 _PAL_BG_POT                        0402 GR
  0 _PAL_BG_POT_DARK                   040A GR
  0 _PAL_BG_POT_DARK_2                 0412 GR
  0 _PAL_BG_POT_DARK_3                 041A GR
  0 _PAL_BG_SPOTS                      03FA GR
  0 _PAL_PLAYER                        03F2 GR
  0 _SPR_DAT_PLAYER_0_0_MID            005A GR
  0 _SPR_DAT_PLAYER_0_1_MID            007A GR
  0 _SPR_DAT_PLAYER_0_2_MID            009A GR
  0 _SPR_DAT_PLAYER_1_0_MID            006A GR
  0 _SPR_DAT_PLAYER_1_1_MID            008A GR
  0 _SPR_DAT_PLAYER_1_2_MID            00AA GR
  0 _TILE_BLANK_EMPTY                  00BA GR
  0 _TILE_BLANK_LIGHT                  00CA GR
  0 _TILE_FIRE                         013A GR
  0 _TILE_POT_FLOOR                    00EA GR
  0 _TILE_POT_LEFT_CORNER              00FA GR
  0 _TILE_POT_LEFT_WALL                011A GR
  0 _TILE_POT_RIGHT_CORNER             010A GR
  0 _TILE_POT_RIGHT_WALL               012A GR
  0 _TILE_SPOTS                        00DA GR
  0 ___draw_player_end                 0586 R
  0 ___draw_player_start               04E7 R
  0 ___game_loop_end                   0590 R
  0 ___game_loop_start                 0586 R
  0 ___init_bg_end                     06E7 R
  0 ___init_bg_start                   0613 R
  0 ___init_player_end                 0613 R
  0 ___init_player_start               0590 R
  0 ___initialize_end                  0720 R
  0 ___initialize_start                06E7 R
  0 ___main_end                        0730 R
  0 ___main_start                      0720 R
  0 ___player_idle_anim_end            04E7 R
  0 ___player_idle_anim_start          045A R
  0 ___player_jump_and_gravity_end     045A R
  0 ___player_jump_and_gravity_start   042A R
  0 ___read_controls_end               005A R
  0 ___read_controls_start             0000 R
    _cgb_compatibility                 **** GX
  0 _draw_player                       04E7 GR
  0 _game_loop                         0586 GR
  0 _init_bg                           0613 GR
  0 _init_player                       0590 GR
  0 _initialize                        06E7 GR
    _joypad                            **** GX
  0 _main                              0720 GR
    _move_sprite                       **** GX
  1 _player_dir                        0003 GR
  0 _player_idle_anim                  045A GR
  1 _player_idle_anim_frames           0005 GR
  0 _player_jump_and_gravity           042A GR
  1 _player_jump_frames                0004 GR
  1 _player_x                          0000 GR
  1 _player_y                          0001 GR
  1 _player_y_draw_offset              0002 GR
  0 _read_controls                     0000 GR
    _set_bkg_data                      **** GX
    _set_bkg_palette                   **** GX
    _set_up_bg                         **** GX
    _set_up_sprite_simple              **** GX
    _wait_vbl_done                     **** GX

ASxxxx Assembler V01.75  (GameBoy Z80-like CPU), page 2.

Area Table

   0 _CODE                              size  730   flags 0
   1 _DATA                              size    7   flags 0
   2 _OVERLAY                           size    0   flags 0
   3 _ISEG                              size    0   flags 0
   4 _BSEG                              size    0   flags 0
   5 _XSEG                              size    0   flags 0
   6 _GSINIT                            size    0   flags 0
   7 _GSFINAL                           size    0   flags 0
   8 _HOME                              size    0   flags 0
